Certificate:
    Data:
        Version: 3 (0x2)
        Serial Number: 1 (0x1)
    Signature Algorithm: sha256WithRSAEncryption
        Issuer: CN=ca.localdomain, C=KO, ST=Seoul, L=Nowon, O=NCTU5GC, OU=Tests
        Validity
            Not Before: Jan  7 09:00:33 2019 GMT
            Not After : Jan  7 09:00:33 2020 GMT
        Subject: C=KO, ST=Seoul, O=NCTU5GC, OU=Tests, CN=amf.localdomain
        Subject Public Key Info:
            Public Key Algorithm: rsaEncryption
                Public-Key: (1024 bit)
                Modulus:
                    00:9e:94:a3:b4:0f:ae:26:2f:11:69:9c:db:d1:8a:
                    15:bd:85:55:b8:8d:c1:b6:70:0c:e8:f0:dd:2b:7f:
                    1e:d8:6c:b7:f8:89:22:e7:ef:f4:0e:db:19:e6:a4:
                    7d:e8:1a:1b:2f:73:7e:95:91:27:4b:db:17:6d:34:
                    5b:d2:fa:d2:38:8b:4b:03:a8:c6:71:d1:63:05:13:
                    2c:55:47:ba:45:57:bd:5a:82:e4:7c:3e:17:14:9e:
                    29:5c:af:41:58:43:2f:95:28:c0:04:29:9a:f5:3c:
                    6d:eb:78:8e:1f:6f:53:d3:53:b3:95:40:68:9c:80:
                    42:10:cb:13:0f:06:c3:c5:bf
                Exponent: 65537 (0x10001)
        X509v3 extensions:
            X509v3 Basic Constraints: 
                CA:FALSE
            Netscape Comment: 
                OpenSSL Generated Certificate
            X509v3 Subject Key Identifier: 
                1E:87:5E:59:80:EA:96:60:70:82:69:AA:86:C8:64:CD:9C:E5:E1:A7
            X509v3 Authority Key Identifier: 
                keyid:8A:26:81:CA:DE:84:D2:C2:2A:75:6E:00:27:A8:41:0D:01:BA:FA:13

    Signature Algorithm: sha256WithRSAEncryption
         0e:53:f5:e0:1f:a7:55:52:ea:b5:52:36:7b:5f:77:dc:48:f3:
         d7:9d:8c:c4:82:bc:e0:2a:eb:04:7e:30:ec:50:70:3a:65:d8:
         2e:98:65:32:8d:7a:e8:24:9d:48:6a:49:7a:10:c4:4d:f1:28:
         03:e9:cc:89:43:57:7c:a8:66:d3:89:85:93:62:86:6d:5b:6c:
         e7:41:2b:6a:9e:ed:f1:6c:49:df:f7:4d:0a:36:78:1b:e2:9c:
         bd:9e:5f:d9:c1:5a:0e:fa:96:bd:36:a2:7c:22:c9:8d:a0:07:
         6b:bd:cc:4f:54:1b:85:ae:f7:7d:e8:c1:ef:50:8c:87:5f:8a:
         20:89
-----BEGIN CERTIFICATE-----
MIICsjCCAhugAwIBAgIBATANBgkqhkiG9w0BAQsFADBoMRcwFQYDVQQDDA5jYS5s
b2NhbGRvbWFpbjELMAkGA1UEBhMCS08xDjAMBgNVBAgMBVNlb3VsMQ4wDAYDVQQH
DAVOb3dvbjEQMA4GA1UECgwHTkNUVTVHQzEOMAwGA1UECwwFVGVzdHMwHhcNMTkw
MTA3MDkwMDMzWhcNMjAwMTA3MDkwMDMzWjBZMQswCQYDVQQGEwJLTzEOMAwGA1UE
CAwFU2VvdWwxEDAOBgNVBAoMB05DVFU1R0MxDjAMBgNVBAsMBVRlc3RzMRgwFgYD
VQQDDA9hbWYubG9jYWxkb21haW4wgZ8wDQYJKoZIhvcNAQEBBQADgY0AMIGJAoGB
AJ6Uo7QPriYvEWmc29GKFb2FVbiNwbZwDOjw3St/Hthst/iJIufv9A7bGeakfega
Gy9zfpWRJ0vbF200W9L60jiLSwOoxnHRYwUTLFVHukVXvVqC5Hw+FxSeKVyvQVhD
L5UowAQpmvU8bet4jh9vU9NTs5VAaJyAQhDLEw8Gw8W/AgMBAAGjezB5MAkGA1Ud
EwQCMAAwLAYJYIZIAYb4QgENBB8WHU9wZW5TU0wgR2VuZXJhdGVkIENlcnRpZmlj
YXRlMB0GA1UdDgQWBBQeh15ZgOqWYHCCaaqGyGTNnOXhpzAfBgNVHSMEGDAWgBSK
JoHK3oTSwip1bgAnqEENAbr6EzANBgkqhkiG9w0BAQsFAAOBgQAOU/XgH6dVUuq1
UjZ7X3fcSPPXnYzEgrzgKusEfjDsUHA6ZdgumGUyjXroJJ1Iakl6EMRN8SgD6cyJ
Q1d8qGbTiYWTYoZtW2znQStqnu3xbEnf900KNngb4py9nl/ZwVoO+pa9NqJ8IsmN
oAdrvcxPVBuFrvd96MHvUIyHX4ogiQ==
-----END CERTIFICATE-----
