Certificate:
    Data:
        Version: 3 (0x2)
        Serial Number: 1 (0x1)
    Signature Algorithm: sha256WithRSAEncryption
        Issuer: CN=ca.localdomain, C=KO, ST=Seoul, L=Nowon, O=Open5GC, OU=Tests
        Validity
            Not Before: Jan  2 07:43:25 2019 GMT
            Not After : Jan  2 07:43:25 2020 GMT
        Subject: C=KO, ST=Seoul, O=Open5GC, OU=Tests, CN=amf.localdomain
        Subject Public Key Info:
            Public Key Algorithm: rsaEncryption
                Public-Key: (1024 bit)
                Modulus:
                    00:b9:05:ae:6f:8d:28:0d:06:2c:4e:df:d2:b2:16:
                    eb:08:2c:ed:72:c3:a8:64:d7:2f:59:5f:12:4c:2c:
                    d9:66:04:5f:4b:28:c5:45:13:af:6e:c2:44:15:98:
                    9e:ef:a2:05:1c:3b:79:b6:94:e8:d9:d9:bb:38:e1:
                    60:b5:f3:4d:bc:dd:fd:99:f4:55:54:4e:69:ce:f0:
                    06:74:68:1f:c2:7b:0e:85:18:e1:84:ed:c4:c5:2b:
                    ad:b7:e7:c3:47:6d:f8:15:ec:a1:a6:c4:fb:50:15:
                    80:4d:9d:82:1d:bd:2b:a2:86:b2:48:4c:69:59:e5:
                    66:8f:25:3f:c5:66:62:6e:25
                Exponent: 65537 (0x10001)
        X509v3 extensions:
            X509v3 Basic Constraints: 
                CA:FALSE
            Netscape Comment: 
                OpenSSL Generated Certificate
            X509v3 Subject Key Identifier: 
                12:2E:A2:84:CB:0B:02:C6:92:DB:29:97:5C:ED:97:CD:26:F1:42:9F
            X509v3 Authority Key Identifier: 
                keyid:3C:3B:38:4D:B1:A0:77:B8:B3:34:01:38:9A:65:B1:A5:18:EF:0B:A5

    Signature Algorithm: sha256WithRSAEncryption
         60:31:77:75:46:8c:0d:cc:7f:bf:d0:57:a3:f7:38:27:c0:ab:
         d4:dd:07:5e:d2:ac:2c:da:e1:bc:53:97:35:a3:0c:d6:f7:95:
         1f:0b:e2:0a:39:d0:fb:f8:ef:07:fe:aa:e0:fd:52:bc:59:5c:
         99:07:a1:ae:21:3b:ba:0a:6f:db:81:80:70:e7:e5:e3:19:87:
         14:cf:fd:38:c2:95:a2:00:49:3c:04:ac:73:c7:ab:96:54:b3:
         0a:dc:bb:6b:ea:5c:fa:d7:43:7d:cf:e5:2a:ee:ae:36:95:21:
         f3:74:7e:6d:97:a7:89:92:80:c8:60:c9:55:d0:c7:33:77:7a:
         b8:af
-----BEGIN CERTIFICATE-----
MIICsjCCAhugAwIBAgIBATANBgkqhkiG9w0BAQsFADBoMRcwFQYDVQQDDA5jYS5s
b2NhbGRvbWFpbjELMAkGA1UEBhMCS08xDjAMBgNVBAgMBVNlb3VsMQ4wDAYDVQQH
DAVOb3dvbjEQMA4GA1UECgwHT3BlbjVHQzEOMAwGA1UECwwFVGVzdHMwHhcNMTkw
MTAyMDc0MzI1WhcNMjAwMTAyMDc0MzI1WjBZMQswCQYDVQQGEwJLTzEOMAwGA1UE
CAwFU2VvdWwxEDAOBgNVBAoMB09wZW41R0MxDjAMBgNVBAsMBVRlc3RzMRgwFgYD
VQQDDA9hbWYubG9jYWxkb21haW4wgZ8wDQYJKoZIhvcNAQEBBQADgY0AMIGJAoGB
ALkFrm+NKA0GLE7f0rIW6wgs7XLDqGTXL1lfEkws2WYEX0soxUUTr27CRBWYnu+i
BRw7ebaU6NnZuzjhYLXzTbzd/Zn0VVROac7wBnRoH8J7DoUY4YTtxMUrrbfnw0dt
+BXsoabE+1AVgE2dgh29K6KGskhMaVnlZo8lP8VmYm4lAgMBAAGjezB5MAkGA1Ud
EwQCMAAwLAYJYIZIAYb4QgENBB8WHU9wZW5TU0wgR2VuZXJhdGVkIENlcnRpZmlj
YXRlMB0GA1UdDgQWBBQSLqKEywsCxpLbKZdc7ZfNJvFCnzAfBgNVHSMEGDAWgBQ8
OzhNsaB3uLM0ATiaZbGlGO8LpTANBgkqhkiG9w0BAQsFAAOBgQBgMXd1RowNzH+/
0Fej9zgnwKvU3Qde0qws2uG8U5c1owzW95UfC+IKOdD7+O8H/qrg/VK8WVyZB6Gu
ITu6Cm/bgYBw5+XjGYcUz/04wpWiAEk8BKxzx6uWVLMK3Ltr6lz610N9z+Uq7q42
lSHzdH5tl6eJkoDIYMlV0Mczd3q4rw==
-----END CERTIFICATE-----
