Certificate:
    Data:
        Version: 3 (0x2)
        Serial Number: 1 (0x1)
    Signature Algorithm: sha256WithRSAEncryption
        Issuer: CN=ca.localdomain, C=TW, ST=Taiwan, L=HsinChu, O=free5GC, OU=Tests
        Validity
            Not Before: Jan 24 01:26:44 2019 GMT
            Not After : Jan 24 01:26:44 2020 GMT
        Subject: C=TW, ST=Taiwan, O=free5GC, OU=Tests, CN=amf.localdomain
        Subject Public Key Info:
            Public Key Algorithm: rsaEncryption
                Public-Key: (1024 bit)
                Modulus:
                    00:bb:e0:dc:63:53:5a:7f:4b:60:9d:5c:a5:f3:68:
                    2b:3c:4b:e6:6c:8c:0c:5d:07:97:7c:fc:23:72:fd:
                    06:60:20:e7:9c:59:08:cc:2a:04:8f:37:1f:e7:d4:
                    07:21:65:07:4c:4b:da:7d:ce:b7:17:34:4b:55:eb:
                    71:de:0c:17:02:0d:7c:71:d5:22:2a:ab:52:4b:d9:
                    ed:da:90:6c:9b:ab:b7:b3:97:6e:b8:1f:0b:a3:57:
                    3f:7f:7e:89:ab:e5:99:44:37:fc:41:8d:eb:96:ec:
                    0b:a0:85:97:f5:36:e4:ee:50:18:b4:05:06:ec:04:
                    61:08:18:d2:74:fa:9d:e4:71
                Exponent: 65537 (0x10001)
        X509v3 extensions:
            X509v3 Basic Constraints: 
                CA:FALSE
            Netscape Comment: 
                OpenSSL Generated Certificate
            X509v3 Subject Key Identifier: 
                59:85:12:69:4F:B9:48:03:37:C4:EC:F0:52:04:3B:36:65:CE:87:39
            X509v3 Authority Key Identifier: 
                keyid:AA:2A:BB:4C:65:16:44:99:F5:22:4A:46:27:55:F8:60:66:64:5E:7A

    Signature Algorithm: sha256WithRSAEncryption
         7d:cf:e7:4e:e4:76:80:c1:8b:30:f9:eb:19:b6:46:b2:85:4f:
         09:12:04:68:86:4e:21:08:93:a4:fc:06:74:d9:94:65:9f:cd:
         f4:5d:d0:bc:e3:88:db:61:a6:5b:a4:6d:fd:9a:5e:94:cb:dd:
         36:82:c8:2d:29:c4:fe:63:76:f1:a2:07:8f:ed:06:3c:46:99:
         35:02:99:56:b4:59:08:8b:f0:17:6f:60:a3:ea:80:49:77:4c:
         59:98:a3:fa:3e:7f:8c:c5:21:9f:1f:3a:dc:bc:5d:fe:9c:55:
         df:bd:db:a1:32:8f:f4:eb:8a:d8:57:cf:fd:15:d7:61:83:e6:
         2f:5e
-----BEGIN CERTIFICATE-----
MIICtjCCAh+gAwIBAgIBATANBgkqhkiG9w0BAQsFADBrMRcwFQYDVQQDDA5jYS5s
b2NhbGRvbWFpbjELMAkGA1UEBhMCVFcxDzANBgNVBAgMBlRhaXdhbjEQMA4GA1UE
BwwHSHNpbkNodTEQMA4GA1UECgwHZnJlZTVHQzEOMAwGA1UECwwFVGVzdHMwHhcN
MTkwMTI0MDEyNjQ0WhcNMjAwMTI0MDEyNjQ0WjBaMQswCQYDVQQGEwJUVzEPMA0G
A1UECAwGVGFpd2FuMRAwDgYDVQQKDAdmcmVlNUdDMQ4wDAYDVQQLDAVUZXN0czEY
MBYGA1UEAwwPYW1mLmxvY2FsZG9tYWluMIGfMA0GCSqGSIb3DQEBAQUAA4GNADCB
iQKBgQC74NxjU1p/S2CdXKXzaCs8S+ZsjAxdB5d8/CNy/QZgIOecWQjMKgSPNx/n
1AchZQdMS9p9zrcXNEtV63HeDBcCDXxx1SIqq1JL2e3akGybq7ezl264HwujVz9/
fomr5ZlEN/xBjeuW7AughZf1NuTuUBi0BQbsBGEIGNJ0+p3kcQIDAQABo3sweTAJ
BgNVHRMEAjAAMCwGCWCGSAGG+EIBDQQfFh1PcGVuU1NMIEdlbmVyYXRlZCBDZXJ0
aWZpY2F0ZTAdBgNVHQ4EFgQUWYUSaU+5SAM3xOzwUgQ7NmXOhzkwHwYDVR0jBBgw
FoAUqiq7TGUWRJn1IkpGJ1X4YGZkXnowDQYJKoZIhvcNAQELBQADgYEAfc/nTuR2
gMGLMPnrGbZGsoVPCRIEaIZOIQiTpPwGdNmUZZ/N9F3QvOOI22GmW6Rt/ZpelMvd
NoLILSnE/mN28aIHj+0GPEaZNQKZVrRZCIvwF29go+qASXdMWZij+j5/jMUhnx86
3Lxd/pxV373boTKP9OuK2FfP/RXXYYPmL14=
-----END CERTIFICATE-----
