Certificate:
    Data:
        Version: 3 (0x2)
        Serial Number: 1 (0x1)
    Signature Algorithm: sha256WithRSAEncryption
        Issuer: CN=ca.localdomain, C=TW, ST=Taiwan, L=HsinChu, O=NCTU5GC, OU=Tests
        Validity
            Not Before: Jan  9 02:10:16 2019 GMT
            Not After : Jan  9 02:10:16 2020 GMT
        Subject: C=TW, ST=Taiwan, O=NCTU5GC, OU=Tests, CN=amf.localdomain
        Subject Public Key Info:
            Public Key Algorithm: rsaEncryption
                Public-Key: (1024 bit)
                Modulus:
                    00:c0:cf:72:40:ee:8a:6f:d3:21:e7:54:2d:78:61:
                    25:c3:e6:13:45:40:7b:7e:bc:fa:a7:05:80:32:ef:
                    03:5c:f6:98:4f:16:81:e6:fc:04:cd:25:36:99:fc:
                    59:b2:0e:30:ce:bc:64:ea:1f:e1:e5:8c:42:c2:53:
                    cd:32:be:93:02:77:af:99:b2:14:39:e9:3a:eb:ef:
                    50:b8:5d:a2:b2:31:cd:85:36:de:07:23:5c:01:cf:
                    4d:2d:66:90:44:b8:67:c9:66:88:40:58:62:6d:61:
                    1f:48:aa:60:e5:46:67:7f:23:71:d6:d0:1b:bf:0c:
                    59:fc:3c:0c:f6:52:82:79:1b
                Exponent: 65537 (0x10001)
        X509v3 extensions:
            X509v3 Basic Constraints: 
                CA:FALSE
            Netscape Comment: 
                OpenSSL Generated Certificate
            X509v3 Subject Key Identifier: 
                43:27:D3:E0:32:5B:4F:AB:B9:86:29:67:12:CC:30:8A:FC:CA:95:C6
            X509v3 Authority Key Identifier: 
                keyid:18:67:04:CB:74:94:79:1D:25:4E:6B:95:22:9C:8B:B7:8A:CC:62:C3

    Signature Algorithm: sha256WithRSAEncryption
         43:8c:2e:00:f2:1e:db:b6:2c:d5:bf:f6:74:44:b1:6c:8a:4d:
         1e:37:d4:9f:b4:1d:30:c4:4f:e2:b4:9a:fa:44:82:09:c8:a0:
         96:e2:49:13:60:d9:14:61:db:61:8e:6a:52:74:76:b7:41:5f:
         93:79:cb:0d:59:9c:1c:b7:3c:48:91:e2:bd:bb:01:ee:d1:a0:
         4a:ea:25:fa:f2:2d:39:fc:54:c6:46:27:89:f5:1f:cd:a7:52:
         b3:02:e1:1d:55:3e:66:20:c2:29:e2:e6:e1:99:d1:d1:61:35:
         82:98:51:fa:b3:3c:9c:ef:39:3e:65:90:0a:50:4f:17:b4:fe:
         04:a8
-----BEGIN CERTIFICATE-----
MIICtjCCAh+gAwIBAgIBATANBgkqhkiG9w0BAQsFADBrMRcwFQYDVQQDDA5jYS5s
b2NhbGRvbWFpbjELMAkGA1UEBhMCVFcxDzANBgNVBAgMBlRhaXdhbjEQMA4GA1UE
BwwHSHNpbkNodTEQMA4GA1UECgwHTkNUVTVHQzEOMAwGA1UECwwFVGVzdHMwHhcN
MTkwMTA5MDIxMDE2WhcNMjAwMTA5MDIxMDE2WjBaMQswCQYDVQQGEwJUVzEPMA0G
A1UECAwGVGFpd2FuMRAwDgYDVQQKDAdOQ1RVNUdDMQ4wDAYDVQQLDAVUZXN0czEY
MBYGA1UEAwwPYW1mLmxvY2FsZG9tYWluMIGfMA0GCSqGSIb3DQEBAQUAA4GNADCB
iQKBgQDAz3JA7opv0yHnVC14YSXD5hNFQHt+vPqnBYAy7wNc9phPFoHm/ATNJTaZ
/FmyDjDOvGTqH+HljELCU80yvpMCd6+ZshQ56Trr71C4XaKyMc2FNt4HI1wBz00t
ZpBEuGfJZohAWGJtYR9IqmDlRmd/I3HW0Bu/DFn8PAz2UoJ5GwIDAQABo3sweTAJ
BgNVHRMEAjAAMCwGCWCGSAGG+EIBDQQfFh1PcGVuU1NMIEdlbmVyYXRlZCBDZXJ0
aWZpY2F0ZTAdBgNVHQ4EFgQUQyfT4DJbT6u5hilnEswwivzKlcYwHwYDVR0jBBgw
FoAUGGcEy3SUeR0lTmuVIpyLt4rMYsMwDQYJKoZIhvcNAQELBQADgYEAQ4wuAPIe
27Ys1b/2dESxbIpNHjfUn7QdMMRP4rSa+kSCCcigluJJE2DZFGHbYY5qUnR2t0Ff
k3nLDVmcHLc8SJHivbsB7tGgSuol+vItOfxUxkYnifUfzadSswLhHVU+ZiDCKeLm
4ZnR0WE1gphR+rM8nO85PmWQClBPF7T+BKg=
-----END CERTIFICATE-----
