Certificate:
    Data:
        Version: 3 (0x2)
        Serial Number: 2 (0x2)
    Signature Algorithm: sha256WithRSAEncryption
        Issuer: CN=ca.localdomain, C=KO, ST=Seoul, L=Nowon, O=NCTU5GC, OU=Tests
        Validity
            Not Before: Jan  7 09:00:33 2019 GMT
            Not After : Jan  7 09:00:33 2020 GMT
        Subject: C=KO, ST=Seoul, O=NCTU5GC, OU=Tests, CN=hss.localdomain
        Subject Public Key Info:
            Public Key Algorithm: rsaEncryption
                Public-Key: (1024 bit)
                Modulus:
                    00:da:52:ea:cc:40:5d:81:fc:46:39:fe:ad:7f:1d:
                    3a:5c:e5:e9:32:6f:c3:ed:1a:a9:0f:1d:3b:27:4b:
                    48:84:b1:52:c3:af:4c:68:ab:a5:bd:c7:b2:f9:8d:
                    0c:81:ad:1d:c5:0d:d6:6b:88:ef:fe:ac:f3:cf:ef:
                    8c:e0:64:dd:42:3f:71:88:ee:75:2a:89:55:80:6a:
                    c5:aa:b0:53:cb:d0:4d:1c:cc:3e:f0:2c:72:a1:5c:
                    c5:71:bc:f0:02:24:c6:52:5f:04:61:35:56:52:20:
                    95:61:5c:64:b5:63:28:97:c8:cf:3a:9b:dd:f5:b8:
                    c9:6a:21:df:44:9a:9e:65:33
                Exponent: 65537 (0x10001)
        X509v3 extensions:
            X509v3 Basic Constraints: 
                CA:FALSE
            Netscape Comment: 
                OpenSSL Generated Certificate
            X509v3 Subject Key Identifier: 
                D8:22:C0:97:47:E2:72:22:61:F5:71:DB:FB:02:12:92:C1:35:E8:05
            X509v3 Authority Key Identifier: 
                keyid:8A:26:81:CA:DE:84:D2:C2:2A:75:6E:00:27:A8:41:0D:01:BA:FA:13

    Signature Algorithm: sha256WithRSAEncryption
         57:e3:c7:b4:37:13:49:b2:34:0b:9f:43:e3:50:bb:51:0e:f4:
         0e:70:bf:bf:58:d3:93:69:42:f9:3b:eb:dd:ce:84:6e:93:84:
         06:75:90:85:bf:e7:42:28:ef:3c:f7:30:b1:2c:8a:b1:f7:00:
         7b:c6:b6:91:a5:13:02:7e:ec:2b:96:7b:d9:5e:ee:75:c4:ca:
         3a:e0:f7:d8:ec:0e:69:1e:2f:86:2c:0f:1f:c5:90:5e:dd:7b:
         5d:68:8f:48:c4:a5:2d:20:ce:6e:f2:8e:d7:2c:a1:66:10:33:
         f3:8f:de:15:07:71:00:61:34:dd:d1:c4:3f:e6:c4:e4:d4:6b:
         94:8c
-----BEGIN CERTIFICATE-----
MIICsjCCAhugAwIBAgIBAjANBgkqhkiG9w0BAQsFADBoMRcwFQYDVQQDDA5jYS5s
b2NhbGRvbWFpbjELMAkGA1UEBhMCS08xDjAMBgNVBAgMBVNlb3VsMQ4wDAYDVQQH
DAVOb3dvbjEQMA4GA1UECgwHTkNUVTVHQzEOMAwGA1UECwwFVGVzdHMwHhcNMTkw
MTA3MDkwMDMzWhcNMjAwMTA3MDkwMDMzWjBZMQswCQYDVQQGEwJLTzEOMAwGA1UE
CAwFU2VvdWwxEDAOBgNVBAoMB05DVFU1R0MxDjAMBgNVBAsMBVRlc3RzMRgwFgYD
VQQDDA9oc3MubG9jYWxkb21haW4wgZ8wDQYJKoZIhvcNAQEBBQADgY0AMIGJAoGB
ANpS6sxAXYH8Rjn+rX8dOlzl6TJvw+0aqQ8dOydLSISxUsOvTGirpb3HsvmNDIGt
HcUN1muI7/6s88/vjOBk3UI/cYjudSqJVYBqxaqwU8vQTRzMPvAscqFcxXG88AIk
xlJfBGE1VlIglWFcZLVjKJfIzzqb3fW4yWoh30SanmUzAgMBAAGjezB5MAkGA1Ud
EwQCMAAwLAYJYIZIAYb4QgENBB8WHU9wZW5TU0wgR2VuZXJhdGVkIENlcnRpZmlj
YXRlMB0GA1UdDgQWBBTYIsCXR+JyImH1cdv7AhKSwTXoBTAfBgNVHSMEGDAWgBSK
JoHK3oTSwip1bgAnqEENAbr6EzANBgkqhkiG9w0BAQsFAAOBgQBX48e0NxNJsjQL
n0PjULtRDvQOcL+/WNOTaUL5O+vdzoRuk4QGdZCFv+dCKO889zCxLIqx9wB7xraR
pRMCfuwrlnvZXu51xMo64PfY7A5pHi+GLA8fxZBe3XtdaI9IxKUtIM5u8o7XLKFm
EDPzj94VB3EAYTTd0cQ/5sTk1GuUjA==
-----END CERTIFICATE-----
