Certificate:
    Data:
        Version: 3 (0x2)
        Serial Number: 2 (0x2)
    Signature Algorithm: sha256WithRSAEncryption
        Issuer: CN=ca.localdomain, C=KO, ST=Seoul, L=Nowon, O=Open5GC, OU=Tests
        Validity
            Not Before: Jan  2 07:43:25 2019 GMT
            Not After : Jan  2 07:43:25 2020 GMT
        Subject: C=KO, ST=Seoul, O=Open5GC, OU=Tests, CN=hss.localdomain
        Subject Public Key Info:
            Public Key Algorithm: rsaEncryption
                Public-Key: (1024 bit)
                Modulus:
                    00:ba:c8:7c:2d:a8:ca:f6:e7:f0:66:f4:14:16:c4:
                    04:a1:cc:41:8a:a3:e4:01:d1:bb:5e:e1:98:33:57:
                    05:ed:4e:e7:9e:bb:87:b9:93:60:d8:92:8a:a2:ab:
                    dc:7b:9d:be:55:d3:a8:f9:62:5c:e0:5f:4f:90:c3:
                    2e:ce:3f:5d:a7:9f:a2:0e:1c:d3:16:73:29:46:d1:
                    71:3a:ca:80:c0:0f:88:79:c8:fe:96:b4:37:b3:4f:
                    3d:d1:a3:76:b3:4f:9b:4b:e1:f2:79:06:f2:fb:54:
                    4d:b8:f6:e6:af:2e:6a:53:9e:7f:69:6f:63:66:bf:
                    7d:99:15:3f:03:a5:dc:7e:21
                Exponent: 65537 (0x10001)
        X509v3 extensions:
            X509v3 Basic Constraints: 
                CA:FALSE
            Netscape Comment: 
                OpenSSL Generated Certificate
            X509v3 Subject Key Identifier: 
                DA:44:B8:14:C8:B9:23:F4:A7:29:85:55:15:99:26:AD:B6:C4:68:B2
            X509v3 Authority Key Identifier: 
                keyid:3C:3B:38:4D:B1:A0:77:B8:B3:34:01:38:9A:65:B1:A5:18:EF:0B:A5

    Signature Algorithm: sha256WithRSAEncryption
         85:07:29:da:80:a5:c0:05:88:60:2c:63:83:46:a6:7d:3a:30:
         18:f8:36:51:5d:c6:c0:dd:1d:02:8b:1a:a0:e5:d8:3a:ff:ae:
         fb:cf:9e:f6:49:df:a1:69:30:0e:eb:31:fc:9a:06:ed:e0:02:
         aa:b6:59:82:32:c5:63:ef:39:bd:d9:6d:84:8a:57:c2:28:b8:
         c7:bc:28:59:52:05:82:4e:d7:bf:4a:12:7e:ee:b7:c7:f1:14:
         af:fa:6c:d7:d0:ea:65:e5:50:b6:c7:23:19:00:91:62:52:9d:
         54:a2:32:ce:db:02:99:31:3b:b4:da:ab:fd:fb:4a:8d:60:c7:
         68:a0
-----BEGIN CERTIFICATE-----
MIICsjCCAhugAwIBAgIBAjANBgkqhkiG9w0BAQsFADBoMRcwFQYDVQQDDA5jYS5s
b2NhbGRvbWFpbjELMAkGA1UEBhMCS08xDjAMBgNVBAgMBVNlb3VsMQ4wDAYDVQQH
DAVOb3dvbjEQMA4GA1UECgwHT3BlbjVHQzEOMAwGA1UECwwFVGVzdHMwHhcNMTkw
MTAyMDc0MzI1WhcNMjAwMTAyMDc0MzI1WjBZMQswCQYDVQQGEwJLTzEOMAwGA1UE
CAwFU2VvdWwxEDAOBgNVBAoMB09wZW41R0MxDjAMBgNVBAsMBVRlc3RzMRgwFgYD
VQQDDA9oc3MubG9jYWxkb21haW4wgZ8wDQYJKoZIhvcNAQEBBQADgY0AMIGJAoGB
ALrIfC2oyvbn8Gb0FBbEBKHMQYqj5AHRu17hmDNXBe1O5567h7mTYNiSiqKr3Hud
vlXTqPliXOBfT5DDLs4/Xaefog4c0xZzKUbRcTrKgMAPiHnI/pa0N7NPPdGjdrNP
m0vh8nkG8vtUTbj25q8ualOef2lvY2a/fZkVPwOl3H4hAgMBAAGjezB5MAkGA1Ud
EwQCMAAwLAYJYIZIAYb4QgENBB8WHU9wZW5TU0wgR2VuZXJhdGVkIENlcnRpZmlj
YXRlMB0GA1UdDgQWBBTaRLgUyLkj9KcphVUVmSattsRosjAfBgNVHSMEGDAWgBQ8
OzhNsaB3uLM0ATiaZbGlGO8LpTANBgkqhkiG9w0BAQsFAAOBgQCFBynagKXABYhg
LGODRqZ9OjAY+DZRXcbA3R0Cixqg5dg6/677z572Sd+haTAO6zH8mgbt4AKqtlmC
MsVj7zm92W2EilfCKLjHvChZUgWCTte/ShJ+7rfH8RSv+mzX0Opl5VC2xyMZAJFi
Up1UojLO2wKZMTu02qv9+0qNYMdooA==
-----END CERTIFICATE-----
