Certificate:
    Data:
        Version: 3 (0x2)
        Serial Number: 2 (0x2)
    Signature Algorithm: sha256WithRSAEncryption
        Issuer: CN=ca.localdomain, C=KO, ST=Seoul, L=Nowon, O=NextEPC, OU=Tests
        Validity
            Not Before: Aug 21 09:05:44 2018 GMT
            Not After : Aug 21 09:05:44 2019 GMT
        Subject: C=KO, ST=Seoul, O=NextEPC, OU=Tests, CN=hss.localdomain
        Subject Public Key Info:
            Public Key Algorithm: rsaEncryption
                Public-Key: (1024 bit)
                Modulus:
                    00:ef:af:fe:be:dd:d0:03:41:49:33:f7:fd:1b:ad:
                    a2:4c:e4:24:4f:b6:f2:4a:4d:cf:09:1e:0b:a2:4c:
                    9d:21:90:45:3b:a7:32:05:f9:74:ac:c8:93:fe:00:
                    bc:36:27:b5:1a:51:bd:07:d3:8e:f6:df:21:90:c8:
                    36:70:18:95:ef:ae:2e:52:ab:69:05:d5:65:53:fb:
                    d5:38:97:be:e9:f0:3b:df:6d:e8:6b:c2:6d:ad:18:
                    cc:76:17:15:8a:5a:2f:5f:b3:ae:8b:b2:10:da:47:
                    a9:ee:05:68:78:1d:b9:ea:48:2a:1f:0e:d8:8e:b7:
                    c7:6e:78:f7:9a:b0:07:e6:0d
                Exponent: 65537 (0x10001)
        X509v3 extensions:
            X509v3 Basic Constraints: 
                CA:FALSE
            Netscape Comment: 
                OpenSSL Generated Certificate
            X509v3 Subject Key Identifier: 
                22:F0:29:C9:F5:3F:86:F0:D4:C0:09:DE:9E:1E:F5:11:9E:92:9F:AA
            X509v3 Authority Key Identifier: 
                keyid:D0:D0:45:F2:E8:91:14:28:5A:28:08:A4:08:89:EE:88:1A:53:A3:93

    Signature Algorithm: sha256WithRSAEncryption
         7f:ba:02:d4:1c:03:0e:20:df:29:b8:f9:7e:d3:fd:9c:18:61:
         15:59:41:e9:a4:f4:53:4e:27:b5:a2:b2:dc:b1:0a:7c:5c:a3:
         f7:d7:18:91:e5:c2:e6:15:ba:62:7d:61:5e:57:05:22:15:f7:
         2a:c1:74:ba:ed:89:99:63:76:f4:99:c4:f4:76:3f:00:58:8b:
         ab:c1:4b:8e:a1:f8:3f:91:38:45:e9:d2:a6:aa:6a:3d:c6:21:
         21:59:29:a4:5e:3c:82:42:8a:f0:9f:eb:02:46:eb:3c:55:83:
         87:fd:58:d8:29:29:8e:1e:11:ee:7b:8e:90:4f:fa:49:49:74:
         09:a4
-----BEGIN CERTIFICATE-----
MIICsjCCAhugAwIBAgIBAjANBgkqhkiG9w0BAQsFADBoMRcwFQYDVQQDDA5jYS5s
b2NhbGRvbWFpbjELMAkGA1UEBhMCS08xDjAMBgNVBAgMBVNlb3VsMQ4wDAYDVQQH
DAVOb3dvbjEQMA4GA1UECgwHTmV4dEVQQzEOMAwGA1UECwwFVGVzdHMwHhcNMTgw
ODIxMDkwNTQ0WhcNMTkwODIxMDkwNTQ0WjBZMQswCQYDVQQGEwJLTzEOMAwGA1UE
CAwFU2VvdWwxEDAOBgNVBAoMB05leHRFUEMxDjAMBgNVBAsMBVRlc3RzMRgwFgYD
VQQDDA9oc3MubG9jYWxkb21haW4wgZ8wDQYJKoZIhvcNAQEBBQADgY0AMIGJAoGB
AO+v/r7d0ANBSTP3/RutokzkJE+28kpNzwkeC6JMnSGQRTunMgX5dKzIk/4AvDYn
tRpRvQfTjvbfIZDINnAYle+uLlKraQXVZVP71TiXvunwO99t6GvCba0YzHYXFYpa
L1+zrouyENpHqe4FaHgduepIKh8O2I63x25495qwB+YNAgMBAAGjezB5MAkGA1Ud
EwQCMAAwLAYJYIZIAYb4QgENBB8WHU9wZW5TU0wgR2VuZXJhdGVkIENlcnRpZmlj
YXRlMB0GA1UdDgQWBBQi8CnJ9T+G8NTACd6eHvURnpKfqjAfBgNVHSMEGDAWgBTQ
0EXy6JEUKFooCKQIie6IGlOjkzANBgkqhkiG9w0BAQsFAAOBgQB/ugLUHAMOIN8p
uPl+0/2cGGEVWUHppPRTTie1orLcsQp8XKP31xiR5cLmFbpifWFeVwUiFfcqwXS6
7YmZY3b0mcT0dj8AWIurwUuOofg/kThF6dKmqmo9xiEhWSmkXjyCQorwn+sCRus8
VYOH/VjYKSmOHhHue46QT/pJSXQJpA==
-----END CERTIFICATE-----
