Certificate:
    Data:
        Version: 3 (0x2)
        Serial Number: 2 (0x2)
    Signature Algorithm: sha256WithRSAEncryption
        Issuer: CN=ca.localdomain, C=KO, ST=Seoul, L=Nowon, O=Open5GC, OU=Tests
        Validity
            Not Before: Aug 28 08:19:46 2018 GMT
            Not After : Aug 28 08:19:46 2019 GMT
        Subject: C=KO, ST=Seoul, O=Open5GC, OU=Tests, CN=hss.localdomain
        Subject Public Key Info:
            Public Key Algorithm: rsaEncryption
                Public-Key: (1024 bit)
                Modulus:
                    00:e6:43:cc:6e:65:a0:d7:1d:43:9c:e2:4d:fd:9d:
                    68:41:c2:4f:cb:d3:f2:27:85:c6:7a:a6:48:cb:3b:
                    b8:23:b1:12:6a:ac:98:10:41:37:df:dd:43:73:8f:
                    cd:8b:9a:3a:8f:18:86:e4:8d:04:a0:ea:15:1d:ab:
                    85:a0:3b:65:05:64:96:3a:ef:37:2d:29:a4:74:2b:
                    27:f5:9c:e9:07:64:81:21:b3:8e:dd:8d:31:b1:6a:
                    1b:02:59:e8:15:ef:26:35:9b:3f:73:75:83:76:f8:
                    1e:e3:0f:12:e2:ed:d0:b4:3d:d3:2c:c3:62:fb:05:
                    ad:b4:8d:4b:08:d8:5c:f9:29
                Exponent: 65537 (0x10001)
        X509v3 extensions:
            X509v3 Basic Constraints: 
                CA:FALSE
            Netscape Comment: 
                OpenSSL Generated Certificate
            X509v3 Subject Key Identifier: 
                77:68:E8:EF:35:8E:14:17:26:D7:18:D6:FC:21:45:E5:D4:9A:C6:51
            X509v3 Authority Key Identifier: 
                keyid:BB:4B:61:70:E1:46:32:8B:E5:74:49:4B:35:7B:AF:42:50:4B:4F:1C

    Signature Algorithm: sha256WithRSAEncryption
         37:0e:f9:9a:07:25:e8:ca:70:a7:39:c9:c0:51:06:73:4d:d0:
         b4:5d:22:7f:44:a8:16:85:03:22:60:25:55:25:59:89:1a:ab:
         b4:6d:a2:6c:95:28:6c:d5:7d:f9:7a:cb:fd:65:15:07:08:f5:
         1c:89:3d:6e:e4:1c:57:a9:59:1f:50:c5:93:cd:01:25:ad:28:
         6d:50:3e:30:0f:91:4f:ea:00:9f:9a:fb:47:7e:cd:5e:39:1e:
         40:21:40:54:86:e7:02:36:37:83:f4:01:66:d7:47:ab:68:ec:
         3f:2e:5d:0f:c1:f4:95:a6:30:0c:01:85:07:43:99:b0:01:c9:
         be:1f
-----BEGIN CERTIFICATE-----
MIICsjCCAhugAwIBAgIBAjANBgkqhkiG9w0BAQsFADBoMRcwFQYDVQQDDA5jYS5s
b2NhbGRvbWFpbjELMAkGA1UEBhMCS08xDjAMBgNVBAgMBVNlb3VsMQ4wDAYDVQQH
DAVOb3dvbjEQMA4GA1UECgwHTmV4dEVQQzEOMAwGA1UECwwFVGVzdHMwHhcNMTgw
ODI4MDgxOTQ2WhcNMTkwODI4MDgxOTQ2WjBZMQswCQYDVQQGEwJLTzEOMAwGA1UE
CAwFU2VvdWwxEDAOBgNVBAoMB05leHRFUEMxDjAMBgNVBAsMBVRlc3RzMRgwFgYD
VQQDDA9oc3MubG9jYWxkb21haW4wgZ8wDQYJKoZIhvcNAQEBBQADgY0AMIGJAoGB
AOZDzG5loNcdQ5ziTf2daEHCT8vT8ieFxnqmSMs7uCOxEmqsmBBBN9/dQ3OPzYua
Oo8YhuSNBKDqFR2rhaA7ZQVkljrvNy0ppHQrJ/Wc6QdkgSGzjt2NMbFqGwJZ6BXv
JjWbP3N1g3b4HuMPEuLt0LQ90yzDYvsFrbSNSwjYXPkpAgMBAAGjezB5MAkGA1Ud
EwQCMAAwLAYJYIZIAYb4QgENBB8WHU9wZW5TU0wgR2VuZXJhdGVkIENlcnRpZmlj
YXRlMB0GA1UdDgQWBBR3aOjvNY4UFybXGNb8IUXl1JrGUTAfBgNVHSMEGDAWgBS7
S2Fw4UYyi+V0SUs1e69CUEtPHDANBgkqhkiG9w0BAQsFAAOBgQA3DvmaByXoynCn
OcnAUQZzTdC0XSJ/RKgWhQMiYCVVJVmJGqu0baJslShs1X35esv9ZRUHCPUciT1u
5BxXqVkfUMWTzQElrShtUD4wD5FP6gCfmvtHfs1eOR5AIUBUhucCNjeD9AFm10er
aOw/Ll0PwfSVpjAMAYUHQ5mwAcm+Hw==
-----END CERTIFICATE-----
