Certificate:
    Data:
        Version: 3 (0x2)
        Serial Number: 2 (0x2)
    Signature Algorithm: sha256WithRSAEncryption
        Issuer: CN=ca.localdomain, C=TW, ST=Taiwan, L=HsinChu, O=NCTU5GC, OU=Tests
        Validity
            Not Before: Jan  9 02:10:16 2019 GMT
            Not After : Jan  9 02:10:16 2020 GMT
        Subject: C=TW, ST=Taiwan, O=NCTU5GC, OU=Tests, CN=hss.localdomain
        Subject Public Key Info:
            Public Key Algorithm: rsaEncryption
                Public-Key: (1024 bit)
                Modulus:
                    00:9f:56:c4:55:11:af:c5:4a:95:1e:4c:1f:79:66:
                    77:97:84:85:71:1e:2f:fe:06:10:e8:03:5d:c8:db:
                    2e:32:8d:2a:fe:0d:a9:bc:21:5e:ec:d5:82:74:77:
                    37:83:be:db:ed:d2:61:b8:c1:5a:6a:48:92:59:1e:
                    16:3d:b6:22:4a:26:7f:09:19:2c:5e:7c:b3:af:85:
                    85:61:4e:fc:40:98:b1:f7:4b:ec:4f:b6:34:08:0c:
                    7c:59:60:19:4d:f5:03:23:0b:ec:26:60:5b:e3:8c:
                    c7:06:2f:25:c3:43:da:10:bd:62:15:2f:f0:17:c6:
                    fe:45:fe:1f:09:b9:93:6b:d5
                Exponent: 65537 (0x10001)
        X509v3 extensions:
            X509v3 Basic Constraints: 
                CA:FALSE
            Netscape Comment: 
                OpenSSL Generated Certificate
            X509v3 Subject Key Identifier: 
                D5:94:A5:AC:48:19:5E:B3:05:72:92:57:52:C4:25:7B:3D:FE:FF:08
            X509v3 Authority Key Identifier: 
                keyid:18:67:04:CB:74:94:79:1D:25:4E:6B:95:22:9C:8B:B7:8A:CC:62:C3

    Signature Algorithm: sha256WithRSAEncryption
         05:a0:17:50:09:3e:71:c1:6b:01:9a:94:7e:49:0c:13:80:16:
         b1:34:87:4b:42:ab:da:1d:8f:d6:f3:e5:0a:dd:ae:36:ca:16:
         20:fa:60:be:36:88:a9:1b:37:ca:64:6b:0f:a7:58:18:4d:71:
         0f:a5:ce:52:d7:44:05:67:47:05:ab:4e:4e:e1:ee:a6:ff:08:
         93:d8:3d:75:7f:db:7a:05:57:3b:43:54:90:8a:c3:a0:26:c2:
         23:7b:45:ad:4a:93:2c:9e:4b:e0:c2:b0:d4:b8:c8:9a:26:2a:
         09:23:26:11:02:e0:0c:8e:c6:fe:b5:d7:9c:0f:b0:e1:1c:5a:
         33:d0
-----BEGIN CERTIFICATE-----
MIICtjCCAh+gAwIBAgIBAjANBgkqhkiG9w0BAQsFADBrMRcwFQYDVQQDDA5jYS5s
b2NhbGRvbWFpbjELMAkGA1UEBhMCVFcxDzANBgNVBAgMBlRhaXdhbjEQMA4GA1UE
BwwHSHNpbkNodTEQMA4GA1UECgwHTkNUVTVHQzEOMAwGA1UECwwFVGVzdHMwHhcN
MTkwMTA5MDIxMDE2WhcNMjAwMTA5MDIxMDE2WjBaMQswCQYDVQQGEwJUVzEPMA0G
A1UECAwGVGFpd2FuMRAwDgYDVQQKDAdOQ1RVNUdDMQ4wDAYDVQQLDAVUZXN0czEY
MBYGA1UEAwwPaHNzLmxvY2FsZG9tYWluMIGfMA0GCSqGSIb3DQEBAQUAA4GNADCB
iQKBgQCfVsRVEa/FSpUeTB95ZneXhIVxHi/+BhDoA13I2y4yjSr+Dam8IV7s1YJ0
dzeDvtvt0mG4wVpqSJJZHhY9tiJKJn8JGSxefLOvhYVhTvxAmLH3S+xPtjQIDHxZ
YBlN9QMjC+wmYFvjjMcGLyXDQ9oQvWIVL/AXxv5F/h8JuZNr1QIDAQABo3sweTAJ
BgNVHRMEAjAAMCwGCWCGSAGG+EIBDQQfFh1PcGVuU1NMIEdlbmVyYXRlZCBDZXJ0
aWZpY2F0ZTAdBgNVHQ4EFgQU1ZSlrEgZXrMFcpJXUsQlez3+/wgwHwYDVR0jBBgw
FoAUGGcEy3SUeR0lTmuVIpyLt4rMYsMwDQYJKoZIhvcNAQELBQADgYEABaAXUAk+
ccFrAZqUfkkME4AWsTSHS0Kr2h2P1vPlCt2uNsoWIPpgvjaIqRs3ymRrD6dYGE1x
D6XOUtdEBWdHBatOTuHupv8Ik9g9dX/begVXO0NUkIrDoCbCI3tFrUqTLJ5L4MKw
1LjImiYqCSMmEQLgDI7G/rXXnA+w4RxaM9A=
-----END CERTIFICATE-----
