Certificate:
    Data:
        Version: 3 (0x2)
        Serial Number: 2 (0x2)
    Signature Algorithm: sha256WithRSAEncryption
        Issuer: CN=ca.localdomain, C=TW, ST=Taiwan, L=HsinChu, O=free5GC, OU=Tests
        Validity
            Not Before: Jan 24 01:26:44 2019 GMT
            Not After : Jan 24 01:26:44 2020 GMT
        Subject: C=TW, ST=Taiwan, O=free5GC, OU=Tests, CN=hss.localdomain
        Subject Public Key Info:
            Public Key Algorithm: rsaEncryption
                Public-Key: (1024 bit)
                Modulus:
                    00:a3:a4:c3:d2:fc:a4:9f:92:28:e3:b9:be:98:c5:
                    98:5d:5d:ad:6a:a8:46:5d:2c:94:26:51:c3:52:42:
                    4b:85:03:c9:c9:1d:d1:15:72:d4:70:87:0f:81:ae:
                    7c:35:5c:8a:6e:95:67:de:86:78:f3:41:f6:64:37:
                    6f:91:ff:d6:0d:b4:68:9d:10:cb:f9:df:01:18:4b:
                    d6:9c:22:c8:ef:3b:3d:a8:bf:a3:21:ad:dd:72:ed:
                    11:c6:ab:90:6a:7f:f0:46:16:48:98:a2:1e:cd:85:
                    6c:82:cb:df:fe:bc:36:9f:8c:37:e3:2e:a0:66:bf:
                    6e:e9:00:d8:53:a2:ce:f9:a5
                Exponent: 65537 (0x10001)
        X509v3 extensions:
            X509v3 Basic Constraints: 
                CA:FALSE
            Netscape Comment: 
                OpenSSL Generated Certificate
            X509v3 Subject Key Identifier: 
                79:05:AA:0E:64:86:7A:26:EE:00:69:FD:D3:DF:8C:1F:FA:2D:D2:F6
            X509v3 Authority Key Identifier: 
                keyid:AA:2A:BB:4C:65:16:44:99:F5:22:4A:46:27:55:F8:60:66:64:5E:7A

    Signature Algorithm: sha256WithRSAEncryption
         ba:e7:4b:f0:98:97:57:5a:40:35:da:73:4b:fd:55:a3:0a:f5:
         a8:f5:6a:1c:93:f2:0d:3e:59:1c:64:05:74:32:03:1e:b2:8f:
         8c:db:c3:aa:60:a8:ab:e0:42:c5:d8:c6:65:fa:24:59:b6:c6:
         19:99:97:b9:48:21:c3:39:d1:17:b8:97:46:d6:a1:d7:9e:6e:
         6b:c2:d3:e4:a4:f5:3e:e1:23:05:14:43:7a:72:3d:7e:99:30:
         70:a0:3c:ed:97:30:9f:26:7b:a6:fe:41:df:d0:26:b3:15:16:
         47:31:33:89:dc:68:ba:f9:4d:0e:14:15:84:13:dd:8e:af:3a:
         b9:b8
-----BEGIN CERTIFICATE-----
MIICtjCCAh+gAwIBAgIBAjANBgkqhkiG9w0BAQsFADBrMRcwFQYDVQQDDA5jYS5s
b2NhbGRvbWFpbjELMAkGA1UEBhMCVFcxDzANBgNVBAgMBlRhaXdhbjEQMA4GA1UE
BwwHSHNpbkNodTEQMA4GA1UECgwHZnJlZTVHQzEOMAwGA1UECwwFVGVzdHMwHhcN
MTkwMTI0MDEyNjQ0WhcNMjAwMTI0MDEyNjQ0WjBaMQswCQYDVQQGEwJUVzEPMA0G
A1UECAwGVGFpd2FuMRAwDgYDVQQKDAdmcmVlNUdDMQ4wDAYDVQQLDAVUZXN0czEY
MBYGA1UEAwwPaHNzLmxvY2FsZG9tYWluMIGfMA0GCSqGSIb3DQEBAQUAA4GNADCB
iQKBgQCjpMPS/KSfkijjub6YxZhdXa1qqEZdLJQmUcNSQkuFA8nJHdEVctRwhw+B
rnw1XIpulWfehnjzQfZkN2+R/9YNtGidEMv53wEYS9acIsjvOz2ov6Mhrd1y7RHG
q5Bqf/BGFkiYoh7NhWyCy9/+vDafjDfjLqBmv27pANhTos75pQIDAQABo3sweTAJ
BgNVHRMEAjAAMCwGCWCGSAGG+EIBDQQfFh1PcGVuU1NMIEdlbmVyYXRlZCBDZXJ0
aWZpY2F0ZTAdBgNVHQ4EFgQUeQWqDmSGeibuAGn909+MH/ot0vYwHwYDVR0jBBgw
FoAUqiq7TGUWRJn1IkpGJ1X4YGZkXnowDQYJKoZIhvcNAQELBQADgYEAuudL8JiX
V1pANdpzS/1Vowr1qPVqHJPyDT5ZHGQFdDIDHrKPjNvDqmCoq+BCxdjGZfokWbbG
GZmXuUghwznRF7iXRtah155ua8LT5KT1PuEjBRRDenI9fpkwcKA87ZcwnyZ7pv5B
39AmsxUWRzEzidxouvlNDhQVhBPdjq86ubg=
-----END CERTIFICATE-----
