Certificate:
    Data:
        Version: 3 (0x2)
        Serial Number: 1 (0x1)
    Signature Algorithm: sha256WithRSAEncryption
        Issuer: CN=ca.localdomain, C=KO, ST=Seoul, L=Nowon, O=NextEPC, OU=Tests
        Validity
            Not Before: Aug 28 08:19:46 2018 GMT
            Not After : Aug 28 08:19:46 2019 GMT
        Subject: C=KO, ST=Seoul, O=NextEPC, OU=Tests, CN=mme.localdomain
        Subject Public Key Info:
            Public Key Algorithm: rsaEncryption
                Public-Key: (1024 bit)
                Modulus:
                    00:c3:e3:5e:c7:b6:be:70:ef:79:9a:58:72:76:bb:
                    77:59:cf:08:5d:9a:d8:66:f9:53:c1:60:6b:a7:48:
                    97:b6:4d:dd:2a:a4:08:b3:33:41:6a:d2:88:be:ef:
                    c2:e7:6e:8c:5f:9f:97:f6:99:12:62:07:0f:17:76:
                    3d:19:b8:69:1c:f0:9f:ad:5f:c2:3a:d8:44:3b:62:
                    cd:33:04:48:36:76:c7:03:00:8f:38:83:ee:22:6f:
                    f3:71:97:60:ef:b1:4a:54:90:30:b5:e9:66:35:b2:
                    82:75:17:ef:7d:ef:8d:bd:19:e5:a8:9e:6d:94:71:
                    70:32:b3:dc:90:c8:46:89:bf
                Exponent: 65537 (0x10001)
        X509v3 extensions:
            X509v3 Basic Constraints: 
                CA:FALSE
            Netscape Comment: 
                OpenSSL Generated Certificate
            X509v3 Subject Key Identifier: 
                C1:99:87:88:98:B2:A1:ED:BE:D5:CE:56:A8:92:CA:02:0C:60:59:09
            X509v3 Authority Key Identifier: 
                keyid:BB:4B:61:70:E1:46:32:8B:E5:74:49:4B:35:7B:AF:42:50:4B:4F:1C

    Signature Algorithm: sha256WithRSAEncryption
         a6:fa:9d:5c:f1:c6:21:c2:96:11:c9:61:5e:8f:83:e1:95:38:
         48:43:4c:ec:a6:2c:1d:d3:d4:fb:96:f9:97:75:74:a1:82:5a:
         e6:bc:f2:59:4f:cc:af:71:d6:77:6b:09:d1:a4:81:ac:c8:03:
         f0:03:e1:7f:9d:f9:b1:70:51:88:c8:bb:f7:ef:48:29:d7:84:
         cf:36:fb:e4:49:3d:76:85:cb:30:79:a1:04:b0:25:71:2b:d8:
         15:fb:08:b0:d4:43:61:c5:1f:b5:e8:4d:fd:ff:a3:b9:c4:17:
         9f:5a:08:cd:50:7b:b9:2d:f9:5a:72:26:f7:db:db:df:44:40:
         99:98
-----BEGIN CERTIFICATE-----
MIICsjCCAhugAwIBAgIBATANBgkqhkiG9w0BAQsFADBoMRcwFQYDVQQDDA5jYS5s
b2NhbGRvbWFpbjELMAkGA1UEBhMCS08xDjAMBgNVBAgMBVNlb3VsMQ4wDAYDVQQH
DAVOb3dvbjEQMA4GA1UECgwHTmV4dEVQQzEOMAwGA1UECwwFVGVzdHMwHhcNMTgw
ODI4MDgxOTQ2WhcNMTkwODI4MDgxOTQ2WjBZMQswCQYDVQQGEwJLTzEOMAwGA1UE
CAwFU2VvdWwxEDAOBgNVBAoMB05leHRFUEMxDjAMBgNVBAsMBVRlc3RzMRgwFgYD
VQQDDA9tbWUubG9jYWxkb21haW4wgZ8wDQYJKoZIhvcNAQEBBQADgY0AMIGJAoGB
AMPjXse2vnDveZpYcna7d1nPCF2a2Gb5U8Fga6dIl7ZN3SqkCLMzQWrSiL7vwudu
jF+fl/aZEmIHDxd2PRm4aRzwn61fwjrYRDtizTMESDZ2xwMAjziD7iJv83GXYO+x
SlSQMLXpZjWygnUX733vjb0Z5aiebZRxcDKz3JDIRom/AgMBAAGjezB5MAkGA1Ud
EwQCMAAwLAYJYIZIAYb4QgENBB8WHU9wZW5TU0wgR2VuZXJhdGVkIENlcnRpZmlj
YXRlMB0GA1UdDgQWBBTBmYeImLKh7b7VzlaoksoCDGBZCTAfBgNVHSMEGDAWgBS7
S2Fw4UYyi+V0SUs1e69CUEtPHDANBgkqhkiG9w0BAQsFAAOBgQCm+p1c8cYhwpYR
yWFej4PhlThIQ0zspiwd09T7lvmXdXShglrmvPJZT8yvcdZ3awnRpIGsyAPwA+F/
nfmxcFGIyLv370gp14TPNvvkST12hcsweaEEsCVxK9gV+wiw1ENhxR+16E39/6O5
xBefWgjNUHu5Lflacib329vfRECZmA==
-----END CERTIFICATE-----
