Certificate:
    Data:
        Version: 3 (0x2)
        Serial Number: 1 (0x1)
    Signature Algorithm: sha256WithRSAEncryption
        Issuer: CN=ca.localdomain, C=KO, ST=Seoul, L=Nowon, O=NextEPC, OU=Tests
        Validity
            Not Before: Aug 21 09:05:44 2018 GMT
            Not After : Aug 21 09:05:44 2019 GMT
        Subject: C=KO, ST=Seoul, O=NextEPC, OU=Tests, CN=mme.localdomain
        Subject Public Key Info:
            Public Key Algorithm: rsaEncryption
                Public-Key: (1024 bit)
                Modulus:
                    00:ab:eb:91:42:0d:5a:6e:47:c3:19:ad:7b:ea:12:
                    24:b4:ca:02:b8:59:29:e0:85:3c:9e:a7:ae:f8:9f:
                    a6:c3:fc:83:25:56:b2:38:d9:11:ed:dc:0c:e9:3c:
                    46:a8:6b:34:40:b4:48:ac:35:25:2c:b6:a1:fc:f3:
                    0e:8e:d9:a8:00:87:19:10:1d:51:91:97:30:5f:dc:
                    47:56:3f:bf:f2:d6:25:e0:7c:11:10:e9:67:85:f4:
                    2c:f7:7a:a9:d2:d2:35:7c:a4:dc:7a:f1:62:91:66:
                    e0:ab:0a:4c:09:4e:b4:e7:ae:62:61:e2:75:85:06:
                    8a:90:b4:fb:fb:68:90:90:a5
                Exponent: 65537 (0x10001)
        X509v3 extensions:
            X509v3 Basic Constraints: 
                CA:FALSE
            Netscape Comment: 
                OpenSSL Generated Certificate
            X509v3 Subject Key Identifier: 
                87:1D:8C:52:70:6B:85:57:0B:05:34:E0:65:EA:0A:ED:98:33:2A:93
            X509v3 Authority Key Identifier: 
                keyid:D0:D0:45:F2:E8:91:14:28:5A:28:08:A4:08:89:EE:88:1A:53:A3:93

    Signature Algorithm: sha256WithRSAEncryption
         6d:c7:3c:2d:cd:2b:5d:28:f2:53:c9:f6:d0:38:ec:ec:56:25:
         41:11:fd:9a:63:22:ba:ae:09:0d:17:a9:2f:5b:73:ed:48:19:
         27:4c:b7:7d:05:ef:70:14:5f:70:23:88:fe:a8:3e:dc:3d:2c:
         10:d1:75:20:d5:6c:ce:66:24:de:4d:31:ab:6a:28:3c:c1:60:
         36:6d:21:7f:5d:79:de:9d:a0:83:1b:3b:3f:e2:08:3b:e7:e3:
         f2:bd:29:a5:0a:ba:96:56:77:87:19:55:37:c7:e8:c4:14:3c:
         b0:48:90:b3:6d:79:41:aa:4d:a5:7a:4b:a7:fa:99:26:dc:1d:
         fc:65
-----BEGIN CERTIFICATE-----
MIICsjCCAhugAwIBAgIBATANBgkqhkiG9w0BAQsFADBoMRcwFQYDVQQDDA5jYS5s
b2NhbGRvbWFpbjELMAkGA1UEBhMCS08xDjAMBgNVBAgMBVNlb3VsMQ4wDAYDVQQH
DAVOb3dvbjEQMA4GA1UECgwHTmV4dEVQQzEOMAwGA1UECwwFVGVzdHMwHhcNMTgw
ODIxMDkwNTQ0WhcNMTkwODIxMDkwNTQ0WjBZMQswCQYDVQQGEwJLTzEOMAwGA1UE
CAwFU2VvdWwxEDAOBgNVBAoMB05leHRFUEMxDjAMBgNVBAsMBVRlc3RzMRgwFgYD
VQQDDA9tbWUubG9jYWxkb21haW4wgZ8wDQYJKoZIhvcNAQEBBQADgY0AMIGJAoGB
AKvrkUINWm5Hwxmte+oSJLTKArhZKeCFPJ6nrvifpsP8gyVWsjjZEe3cDOk8Rqhr
NEC0SKw1JSy2ofzzDo7ZqACHGRAdUZGXMF/cR1Y/v/LWJeB8ERDpZ4X0LPd6qdLS
NXyk3HrxYpFm4KsKTAlOtOeuYmHidYUGipC0+/tokJClAgMBAAGjezB5MAkGA1Ud
EwQCMAAwLAYJYIZIAYb4QgENBB8WHU9wZW5TU0wgR2VuZXJhdGVkIENlcnRpZmlj
YXRlMB0GA1UdDgQWBBSHHYxScGuFVwsFNOBl6grtmDMqkzAfBgNVHSMEGDAWgBTQ
0EXy6JEUKFooCKQIie6IGlOjkzANBgkqhkiG9w0BAQsFAAOBgQBtxzwtzStdKPJT
yfbQOOzsViVBEf2aYyK6rgkNF6kvW3PtSBknTLd9Be9wFF9wI4j+qD7cPSwQ0XUg
1WzOZiTeTTGraig8wWA2bSF/XXnenaCDGzs/4gg75+PyvSmlCrqWVneHGVU3x+jE
FDywSJCzbXlBqk2lekun+pkm3B38ZQ==
-----END CERTIFICATE-----
