Certificate:
    Data:
        Version: 3 (0x2)
        Serial Number: 4 (0x4)
    Signature Algorithm: sha256WithRSAEncryption
        Issuer: CN=ca.localdomain, C=KO, ST=Seoul, L=Nowon, O=NextEPC, OU=Tests
        Validity
            Not Before: Aug 21 09:05:44 2018 GMT
            Not After : Aug 21 09:05:44 2019 GMT
        Subject: C=KO, ST=Seoul, O=NextEPC, OU=Tests, CN=pcrf.localdomain
        Subject Public Key Info:
            Public Key Algorithm: rsaEncryption
                Public-Key: (1024 bit)
                Modulus:
                    00:a6:bc:1e:30:7d:75:ba:8d:14:06:2a:0b:59:94:
                    de:21:d0:5b:5d:e7:86:17:e8:e7:3a:b6:7f:fe:d4:
                    12:83:dc:75:e8:bd:7a:b8:73:35:03:e1:ca:05:db:
                    7b:c3:99:a7:32:ae:59:0f:46:d1:e8:61:54:63:d0:
                    2c:fe:7e:3b:33:33:4b:bc:50:c0:d4:dc:57:f7:67:
                    29:57:f8:00:a3:6c:70:c9:52:2e:4e:04:d4:96:fd:
                    73:fc:1e:77:7f:37:92:e5:9a:ef:84:de:16:54:cb:
                    b6:6f:93:af:70:3b:7d:53:34:79:70:d7:e9:ce:76:
                    fc:bd:35:95:15:1b:ff:90:a9
                Exponent: 65537 (0x10001)
        X509v3 extensions:
            X509v3 Basic Constraints: 
                CA:FALSE
            Netscape Comment: 
                OpenSSL Generated Certificate
            X509v3 Subject Key Identifier: 
                48:9C:6C:0D:A8:4F:6F:9F:1D:95:6C:5A:41:3A:2E:EE:BF:36:8A:60
            X509v3 Authority Key Identifier: 
                keyid:D0:D0:45:F2:E8:91:14:28:5A:28:08:A4:08:89:EE:88:1A:53:A3:93

    Signature Algorithm: sha256WithRSAEncryption
         ec:e6:bb:c2:17:5f:e3:64:f7:ad:2e:fd:16:8e:45:3f:43:12:
         8f:2d:c5:93:f0:4c:9d:30:c3:de:b3:53:96:f1:3f:6c:88:38:
         91:d6:5e:43:a3:17:a1:e0:63:63:8f:a2:7a:aa:7d:35:6a:4d:
         3d:85:67:b8:f3:ca:2c:8d:65:13:63:a1:f5:38:a2:50:fd:1d:
         5c:8b:63:6a:41:99:ce:40:61:41:15:38:cf:46:cf:38:34:59:
         fb:10:41:26:c6:0e:99:1c:d4:28:14:15:19:9d:34:7e:86:55:
         f7:0d:44:80:9b:83:90:78:68:7a:1b:b1:b9:ee:00:56:72:69:
         98:58
-----BEGIN CERTIFICATE-----
MIICszCCAhygAwIBAgIBBDANBgkqhkiG9w0BAQsFADBoMRcwFQYDVQQDDA5jYS5s
b2NhbGRvbWFpbjELMAkGA1UEBhMCS08xDjAMBgNVBAgMBVNlb3VsMQ4wDAYDVQQH
DAVOb3dvbjEQMA4GA1UECgwHTmV4dEVQQzEOMAwGA1UECwwFVGVzdHMwHhcNMTgw
ODIxMDkwNTQ0WhcNMTkwODIxMDkwNTQ0WjBaMQswCQYDVQQGEwJLTzEOMAwGA1UE
CAwFU2VvdWwxEDAOBgNVBAoMB05leHRFUEMxDjAMBgNVBAsMBVRlc3RzMRkwFwYD
VQQDDBBwY3JmLmxvY2FsZG9tYWluMIGfMA0GCSqGSIb3DQEBAQUAA4GNADCBiQKB
gQCmvB4wfXW6jRQGKgtZlN4h0Ftd54YX6Oc6tn/+1BKD3HXovXq4czUD4coF23vD
macyrlkPRtHoYVRj0Cz+fjszM0u8UMDU3Ff3ZylX+ACjbHDJUi5OBNSW/XP8Hnd/
N5Llmu+E3hZUy7Zvk69wO31TNHlw1+nOdvy9NZUVG/+QqQIDAQABo3sweTAJBgNV
HRMEAjAAMCwGCWCGSAGG+EIBDQQfFh1PcGVuU1NMIEdlbmVyYXRlZCBDZXJ0aWZp
Y2F0ZTAdBgNVHQ4EFgQUSJxsDahPb58dlWxaQTou7r82imAwHwYDVR0jBBgwFoAU
0NBF8uiRFChaKAikCInuiBpTo5MwDQYJKoZIhvcNAQELBQADgYEA7Oa7whdf42T3
rS79Fo5FP0MSjy3Fk/BMnTDD3rNTlvE/bIg4kdZeQ6MXoeBjY4+ieqp9NWpNPYVn
uPPKLI1lE2Oh9TiiUP0dXItjakGZzkBhQRU4z0bPODRZ+xBBJsYOmRzUKBQVGZ00
foZV9w1EgJuDkHhoehuxue4AVnJpmFg=
-----END CERTIFICATE-----
