Certificate:
    Data:
        Version: 3 (0x2)
        Serial Number: 4 (0x4)
    Signature Algorithm: sha256WithRSAEncryption
        Issuer: CN=ca.localdomain, C=KO, ST=Seoul, L=Nowon, O=Open5GC, OU=Tests
        Validity
            Not Before: Jan  2 07:43:25 2019 GMT
            Not After : Jan  2 07:43:25 2020 GMT
        Subject: C=KO, ST=Seoul, O=Open5GC, OU=Tests, CN=pcrf.localdomain
        Subject Public Key Info:
            Public Key Algorithm: rsaEncryption
                Public-Key: (1024 bit)
                Modulus:
                    00:cb:6e:0d:b3:e7:46:a6:a0:f1:0c:aa:9d:a4:c5:
                    f0:99:63:75:8b:e8:52:a6:05:b4:0b:28:07:22:aa:
                    28:f6:a3:67:6d:77:c2:96:99:95:8f:f6:07:48:ef:
                    49:95:86:fc:1a:4b:55:f4:c9:08:60:3d:b1:e7:e6:
                    ba:72:d9:5a:a1:00:c9:e1:43:c3:db:8b:a7:a9:97:
                    2e:54:05:64:eb:38:55:43:b8:65:30:71:7b:7c:99:
                    a9:12:91:c8:c6:c6:4c:28:24:50:2b:3f:eb:d2:69:
                    ab:8f:fa:ea:67:d9:d8:a2:e4:b5:f2:34:71:e1:bb:
                    8c:05:ca:00:b8:b2:e0:c5:df
                Exponent: 65537 (0x10001)
        X509v3 extensions:
            X509v3 Basic Constraints: 
                CA:FALSE
            Netscape Comment: 
                OpenSSL Generated Certificate
            X509v3 Subject Key Identifier: 
                E6:2E:9C:CE:25:90:B5:EC:1D:83:9D:0B:DA:84:23:88:8A:51:25:E3
            X509v3 Authority Key Identifier: 
                keyid:3C:3B:38:4D:B1:A0:77:B8:B3:34:01:38:9A:65:B1:A5:18:EF:0B:A5

    Signature Algorithm: sha256WithRSAEncryption
         3f:1d:d5:3b:2b:83:1f:49:0e:89:79:6a:54:83:e7:0b:f9:7a:
         00:f0:96:1a:3f:8c:1b:f8:7d:d8:96:2f:ba:41:81:38:93:9f:
         bd:a8:6c:17:fd:1b:c6:f5:8d:38:5b:08:06:71:70:e0:56:c2:
         4b:ce:62:96:ce:50:6b:84:10:33:5e:fe:76:1b:a3:e9:b1:5a:
         49:89:ca:99:26:5d:be:0c:fd:76:f6:08:58:c3:92:d7:0a:37:
         5a:76:c2:9b:ba:fc:af:1f:82:73:61:c5:6a:7e:85:9f:fb:38:
         8e:e6:d2:5b:c5:47:f4:bd:9e:01:8d:ed:f4:24:78:a2:66:11:
         78:02
-----BEGIN CERTIFICATE-----
MIICszCCAhygAwIBAgIBBDANBgkqhkiG9w0BAQsFADBoMRcwFQYDVQQDDA5jYS5s
b2NhbGRvbWFpbjELMAkGA1UEBhMCS08xDjAMBgNVBAgMBVNlb3VsMQ4wDAYDVQQH
DAVOb3dvbjEQMA4GA1UECgwHT3BlbjVHQzEOMAwGA1UECwwFVGVzdHMwHhcNMTkw
MTAyMDc0MzI1WhcNMjAwMTAyMDc0MzI1WjBaMQswCQYDVQQGEwJLTzEOMAwGA1UE
CAwFU2VvdWwxEDAOBgNVBAoMB09wZW41R0MxDjAMBgNVBAsMBVRlc3RzMRkwFwYD
VQQDDBBwY3JmLmxvY2FsZG9tYWluMIGfMA0GCSqGSIb3DQEBAQUAA4GNADCBiQKB
gQDLbg2z50amoPEMqp2kxfCZY3WL6FKmBbQLKAciqij2o2dtd8KWmZWP9gdI70mV
hvwaS1X0yQhgPbHn5rpy2VqhAMnhQ8Pbi6eply5UBWTrOFVDuGUwcXt8makSkcjG
xkwoJFArP+vSaauP+upn2dii5LXyNHHhu4wFygC4suDF3wIDAQABo3sweTAJBgNV
HRMEAjAAMCwGCWCGSAGG+EIBDQQfFh1PcGVuU1NMIEdlbmVyYXRlZCBDZXJ0aWZp
Y2F0ZTAdBgNVHQ4EFgQU5i6cziWQtewdg50L2oQjiIpRJeMwHwYDVR0jBBgwFoAU
PDs4TbGgd7izNAE4mmWxpRjvC6UwDQYJKoZIhvcNAQELBQADgYEAPx3VOyuDH0kO
iXlqVIPnC/l6APCWGj+MG/h92JYvukGBOJOfvahsF/0bxvWNOFsIBnFw4FbCS85i
ls5Qa4QQM17+dhuj6bFaSYnKmSZdvgz9dvYIWMOS1wo3WnbCm7r8rx+Cc2HFan6F
n/s4jubSW8VH9L2eAY3t9CR4omYReAI=
-----END CERTIFICATE-----
