Certificate:
    Data:
        Version: 3 (0x2)
        Serial Number: 4 (0x4)
    Signature Algorithm: sha256WithRSAEncryption
        Issuer: CN=ca.localdomain, C=TW, ST=Taiwan, L=HsinChu, O=NCTU5GC, OU=Tests
        Validity
            Not Before: Jan  9 02:10:16 2019 GMT
            Not After : Jan  9 02:10:16 2020 GMT
        Subject: C=TW, ST=Taiwan, O=NCTU5GC, OU=Tests, CN=pcrf.localdomain
        Subject Public Key Info:
            Public Key Algorithm: rsaEncryption
                Public-Key: (1024 bit)
                Modulus:
                    00:d0:b0:b4:4a:3f:70:27:2d:a3:06:84:72:ef:d3:
                    30:00:30:5d:32:8f:34:8c:3a:5a:2e:68:25:da:c0:
                    36:5c:5c:27:37:a6:6c:95:db:89:dc:7c:50:4c:16:
                    6b:c6:4b:fe:47:10:bb:3e:ac:00:d6:47:5e:7e:74:
                    e1:51:ef:48:ff:21:f9:01:f5:54:af:c3:9b:99:6f:
                    d3:72:4f:29:4a:92:a1:81:81:9f:3a:8f:93:c7:89:
                    65:b3:b5:f7:81:82:0b:b6:c1:fc:76:c2:c4:95:39:
                    50:8e:a4:45:68:8b:86:03:25:59:c8:8e:c7:bc:9b:
                    98:8a:0f:a5:4b:b4:7c:bd:07
                Exponent: 65537 (0x10001)
        X509v3 extensions:
            X509v3 Basic Constraints: 
                CA:FALSE
            Netscape Comment: 
                OpenSSL Generated Certificate
            X509v3 Subject Key Identifier: 
                17:C7:6F:F2:1E:68:96:3D:78:CA:9B:0F:D3:85:61:30:4B:B9:52:CE
            X509v3 Authority Key Identifier: 
                keyid:18:67:04:CB:74:94:79:1D:25:4E:6B:95:22:9C:8B:B7:8A:CC:62:C3

    Signature Algorithm: sha256WithRSAEncryption
         5f:e8:ae:b5:d9:97:fb:db:7c:26:2a:cf:18:a8:ec:d6:44:0d:
         85:22:bf:61:50:a2:11:c5:9e:3b:95:58:0b:a4:2b:d2:26:11:
         76:a4:72:6d:60:3c:7e:ca:d6:3b:09:f1:ec:e9:fc:45:87:d2:
         80:ed:e8:f4:d6:33:3c:f3:2a:70:c0:de:c6:a3:aa:c9:f2:e1:
         6d:cd:90:39:2a:ff:f3:21:5e:f7:43:7c:e0:ff:5b:d6:99:b0:
         3e:9f:26:e4:98:f5:76:b1:18:27:14:23:ea:88:28:45:2b:f4:
         fc:07:5f:6c:9e:88:5a:a1:97:a6:7f:d0:22:17:ac:0c:4e:c8:
         ce:c0
-----BEGIN CERTIFICATE-----
MIICtzCCAiCgAwIBAgIBBDANBgkqhkiG9w0BAQsFADBrMRcwFQYDVQQDDA5jYS5s
b2NhbGRvbWFpbjELMAkGA1UEBhMCVFcxDzANBgNVBAgMBlRhaXdhbjEQMA4GA1UE
BwwHSHNpbkNodTEQMA4GA1UECgwHTkNUVTVHQzEOMAwGA1UECwwFVGVzdHMwHhcN
MTkwMTA5MDIxMDE2WhcNMjAwMTA5MDIxMDE2WjBbMQswCQYDVQQGEwJUVzEPMA0G
A1UECAwGVGFpd2FuMRAwDgYDVQQKDAdOQ1RVNUdDMQ4wDAYDVQQLDAVUZXN0czEZ
MBcGA1UEAwwQcGNyZi5sb2NhbGRvbWFpbjCBnzANBgkqhkiG9w0BAQEFAAOBjQAw
gYkCgYEA0LC0Sj9wJy2jBoRy79MwADBdMo80jDpaLmgl2sA2XFwnN6ZslduJ3HxQ
TBZrxkv+RxC7PqwA1kdefnThUe9I/yH5AfVUr8ObmW/Tck8pSpKhgYGfOo+Tx4ll
s7X3gYILtsH8dsLElTlQjqRFaIuGAyVZyI7HvJuYig+lS7R8vQcCAwEAAaN7MHkw
CQYDVR0TBAIwADAsBglghkgBhvhCAQ0EHxYdT3BlblNTTCBHZW5lcmF0ZWQgQ2Vy
dGlmaWNhdGUwHQYDVR0OBBYEFBfHb/IeaJY9eMqbD9OFYTBLuVLOMB8GA1UdIwQY
MBaAFBhnBMt0lHkdJU5rlSKci7eKzGLDMA0GCSqGSIb3DQEBCwUAA4GBAF/orrXZ
l/vbfCYqzxio7NZEDYUiv2FQohHFnjuVWAukK9ImEXakcm1gPH7K1jsJ8ezp/EWH
0oDt6PTWMzzzKnDA3sajqsny4W3NkDkq//MhXvdDfOD/W9aZsD6fJuSY9XaxGCcU
I+qIKEUr9PwHX2yeiFqhl6Z/0CIXrAxOyM7A
-----END CERTIFICATE-----
