Certificate:
    Data:
        Version: 3 (0x2)
        Serial Number: 4 (0x4)
    Signature Algorithm: sha256WithRSAEncryption
        Issuer: CN=ca.localdomain, C=KO, ST=Seoul, L=Nowon, O=Open5GC, OU=Tests
        Validity
            Not Before: Aug 28 08:19:46 2018 GMT
            Not After : Aug 28 08:19:46 2019 GMT
        Subject: C=KO, ST=Seoul, O=Open5GC, OU=Tests, CN=pcrf.localdomain
        Subject Public Key Info:
            Public Key Algorithm: rsaEncryption
                Public-Key: (1024 bit)
                Modulus:
                    00:c9:87:21:c4:11:1e:c9:b0:bb:9e:ea:dc:9d:ab:
                    21:fd:8c:7e:81:9a:66:df:29:9b:99:92:70:df:12:
                    45:94:59:e8:a1:7c:f1:69:2f:fa:23:a2:1a:b8:eb:
                    e1:35:a5:c9:7f:60:70:e2:0a:cc:9b:fe:6d:4d:af:
                    fa:e5:26:61:5e:e3:19:16:22:97:e3:16:b8:55:60:
                    4a:9e:0f:79:08:84:c6:ee:0c:25:94:db:79:ea:d0:
                    0e:f5:14:f9:0f:01:97:70:01:a3:b8:96:89:71:e7:
                    02:35:79:56:25:a7:52:c0:32:2a:b4:46:c9:4c:3d:
                    bf:36:0c:af:e0:aa:01:05:9b
                Exponent: 65537 (0x10001)
        X509v3 extensions:
            X509v3 Basic Constraints: 
                CA:FALSE
            Netscape Comment: 
                OpenSSL Generated Certificate
            X509v3 Subject Key Identifier: 
                6B:F9:A4:57:22:47:F0:CF:55:64:45:C8:E1:A9:7B:EA:70:30:0E:8F
            X509v3 Authority Key Identifier: 
                keyid:BB:4B:61:70:E1:46:32:8B:E5:74:49:4B:35:7B:AF:42:50:4B:4F:1C

    Signature Algorithm: sha256WithRSAEncryption
         3b:1d:2b:ba:33:e6:08:e4:0b:f6:51:f8:4e:48:b2:c3:0f:e3:
         2f:2e:9e:78:18:63:21:df:b9:94:61:30:ed:cd:48:83:d3:43:
         81:56:ed:46:34:e2:c8:83:45:0f:f2:f9:4e:2b:0e:f0:30:5d:
         09:d1:5f:c8:a3:cd:7c:78:d0:8a:ed:28:85:85:58:61:e3:e5:
         7e:9b:d9:42:13:e0:ff:ba:05:13:ab:73:8b:04:1d:fa:22:9f:
         0e:6d:0a:7f:60:53:ea:e8:fe:fc:73:ff:7f:9c:ea:e8:e5:6a:
         cb:c4:f0:d3:11:06:0e:f1:ca:d0:24:f3:b9:85:ce:ff:21:a9:
         d1:99
-----BEGIN CERTIFICATE-----
MIICszCCAhygAwIBAgIBBDANBgkqhkiG9w0BAQsFADBoMRcwFQYDVQQDDA5jYS5s
b2NhbGRvbWFpbjELMAkGA1UEBhMCS08xDjAMBgNVBAgMBVNlb3VsMQ4wDAYDVQQH
DAVOb3dvbjEQMA4GA1UECgwHTmV4dEVQQzEOMAwGA1UECwwFVGVzdHMwHhcNMTgw
ODI4MDgxOTQ2WhcNMTkwODI4MDgxOTQ2WjBaMQswCQYDVQQGEwJLTzEOMAwGA1UE
CAwFU2VvdWwxEDAOBgNVBAoMB05leHRFUEMxDjAMBgNVBAsMBVRlc3RzMRkwFwYD
VQQDDBBwY3JmLmxvY2FsZG9tYWluMIGfMA0GCSqGSIb3DQEBAQUAA4GNADCBiQKB
gQDJhyHEER7JsLue6tydqyH9jH6BmmbfKZuZknDfEkWUWeihfPFpL/ojohq46+E1
pcl/YHDiCsyb/m1Nr/rlJmFe4xkWIpfjFrhVYEqeD3kIhMbuDCWU23nq0A71FPkP
AZdwAaO4lolx5wI1eVYlp1LAMiq0RslMPb82DK/gqgEFmwIDAQABo3sweTAJBgNV
HRMEAjAAMCwGCWCGSAGG+EIBDQQfFh1PcGVuU1NMIEdlbmVyYXRlZCBDZXJ0aWZp
Y2F0ZTAdBgNVHQ4EFgQUa/mkVyJH8M9VZEXI4al76nAwDo8wHwYDVR0jBBgwFoAU
u0thcOFGMovldElLNXuvQlBLTxwwDQYJKoZIhvcNAQELBQADgYEAOx0rujPmCOQL
9lH4Tkiyww/jLy6eeBhjId+5lGEw7c1Ig9NDgVbtRjTiyINFD/L5TisO8DBdCdFf
yKPNfHjQiu0ohYVYYePlfpvZQhPg/7oFE6tziwQd+iKfDm0Kf2BT6uj+/HP/f5zq
6OVqy8Tw0xEGDvHK0CTzuYXO/yGp0Zk=
-----END CERTIFICATE-----
