Certificate:
    Data:
        Version: 3 (0x2)
        Serial Number: 4 (0x4)
    Signature Algorithm: sha256WithRSAEncryption
        Issuer: CN=ca.localdomain, C=KO, ST=Seoul, L=Nowon, O=NCTU5GC, OU=Tests
        Validity
            Not Before: Jan  7 09:00:33 2019 GMT
            Not After : Jan  7 09:00:33 2020 GMT
        Subject: C=KO, ST=Seoul, O=NCTU5GC, OU=Tests, CN=pcrf.localdomain
        Subject Public Key Info:
            Public Key Algorithm: rsaEncryption
                Public-Key: (1024 bit)
                Modulus:
                    00:c6:5b:b7:92:ec:44:4d:ab:77:ea:de:9d:c2:60:
                    82:2d:1c:1b:04:11:34:82:93:b2:81:fe:1c:7c:5a:
                    97:ed:9d:54:21:17:7a:61:7b:24:9e:46:cb:75:dc:
                    33:1b:bb:5f:18:b8:9d:2c:d4:81:8e:db:7f:b0:d4:
                    8f:ac:0b:f0:99:71:1e:5e:77:cd:55:10:bf:38:6f:
                    5c:a5:27:b3:fe:c6:90:6e:cb:f6:71:9a:b7:cf:cf:
                    12:f8:48:e3:45:89:d1:03:ff:28:7d:0d:a2:23:88:
                    3e:db:4e:a3:ce:e4:e4:7b:46:c0:26:e2:74:f0:1e:
                    1e:e8:c8:2c:71:83:72:0d:2b
                Exponent: 65537 (0x10001)
        X509v3 extensions:
            X509v3 Basic Constraints: 
                CA:FALSE
            Netscape Comment: 
                OpenSSL Generated Certificate
            X509v3 Subject Key Identifier: 
                3A:7B:A5:CA:76:4B:DB:A9:86:CA:FF:46:46:28:02:45:BD:52:42:FE
            X509v3 Authority Key Identifier: 
                keyid:8A:26:81:CA:DE:84:D2:C2:2A:75:6E:00:27:A8:41:0D:01:BA:FA:13

    Signature Algorithm: sha256WithRSAEncryption
         a2:68:76:a7:39:27:97:01:31:4a:7c:81:ad:f6:e2:cd:be:fb:
         9c:0f:ff:ec:1d:c9:5c:74:dc:05:32:e9:c3:23:b2:79:b7:b9:
         bb:48:83:c5:ad:38:9e:e9:f0:84:a1:8a:85:56:e6:c7:56:52:
         6a:1a:4a:08:e5:14:2b:d5:63:3d:9a:e0:4f:2b:ba:3f:2e:fd:
         9e:36:c5:96:25:8a:8e:a6:ce:d8:5c:b2:62:88:7b:e4:11:fe:
         3d:35:d5:9e:4e:01:7a:eb:a5:50:d0:0a:8c:db:b6:68:d5:97:
         87:d9:ff:f4:80:6e:94:48:86:bb:49:74:60:fb:20:40:1b:31:
         0b:11
-----BEGIN CERTIFICATE-----
MIICszCCAhygAwIBAgIBBDANBgkqhkiG9w0BAQsFADBoMRcwFQYDVQQDDA5jYS5s
b2NhbGRvbWFpbjELMAkGA1UEBhMCS08xDjAMBgNVBAgMBVNlb3VsMQ4wDAYDVQQH
DAVOb3dvbjEQMA4GA1UECgwHTkNUVTVHQzEOMAwGA1UECwwFVGVzdHMwHhcNMTkw
MTA3MDkwMDMzWhcNMjAwMTA3MDkwMDMzWjBaMQswCQYDVQQGEwJLTzEOMAwGA1UE
CAwFU2VvdWwxEDAOBgNVBAoMB05DVFU1R0MxDjAMBgNVBAsMBVRlc3RzMRkwFwYD
VQQDDBBwY3JmLmxvY2FsZG9tYWluMIGfMA0GCSqGSIb3DQEBAQUAA4GNADCBiQKB
gQDGW7eS7ERNq3fq3p3CYIItHBsEETSCk7KB/hx8WpftnVQhF3pheySeRst13DMb
u18YuJ0s1IGO23+w1I+sC/CZcR5ed81VEL84b1ylJ7P+xpBuy/ZxmrfPzxL4SONF
idED/yh9DaIjiD7bTqPO5OR7RsAm4nTwHh7oyCxxg3INKwIDAQABo3sweTAJBgNV
HRMEAjAAMCwGCWCGSAGG+EIBDQQfFh1PcGVuU1NMIEdlbmVyYXRlZCBDZXJ0aWZp
Y2F0ZTAdBgNVHQ4EFgQUOnulynZL26mGyv9GRigCRb1SQv4wHwYDVR0jBBgwFoAU
iiaByt6E0sIqdW4AJ6hBDQG6+hMwDQYJKoZIhvcNAQELBQADgYEAomh2pzknlwEx
SnyBrfbizb77nA//7B3JXHTcBTLpwyOyebe5u0iDxa04nunwhKGKhVbmx1ZSahpK
COUUK9VjPZrgTyu6Py79njbFliWKjqbO2FyyYoh75BH+PTXVnk4BeuulUNAKjNu2
aNWXh9n/9IBulEiGu0l0YPsgQBsxCxE=
-----END CERTIFICATE-----
