Certificate:
    Data:
        Version: 3 (0x2)
        Serial Number: 4 (0x4)
    Signature Algorithm: sha256WithRSAEncryption
        Issuer: CN=ca.localdomain, C=TW, ST=Taiwan, L=HsinChu, O=free5GC, OU=Tests
        Validity
            Not Before: Jan 24 01:26:44 2019 GMT
            Not After : Jan 24 01:26:44 2020 GMT
        Subject: C=TW, ST=Taiwan, O=free5GC, OU=Tests, CN=pcrf.localdomain
        Subject Public Key Info:
            Public Key Algorithm: rsaEncryption
                Public-Key: (1024 bit)
                Modulus:
                    00:b3:36:19:83:e0:b2:f5:53:78:a7:ab:ff:6f:7a:
                    ee:15:c2:9d:cc:e8:19:79:84:b7:b4:f9:ef:3e:7d:
                    86:e9:36:91:98:c8:db:b4:ae:49:79:e5:61:a3:60:
                    1d:d3:e5:75:04:c8:bc:06:6d:bd:c0:27:ea:72:1c:
                    4d:da:a7:6c:c2:ad:d7:33:43:c2:76:b8:1f:0f:d3:
                    21:13:64:a7:d7:53:d5:78:4b:bd:15:f8:cf:da:1c:
                    e6:14:30:cc:ff:71:6f:27:46:8d:6b:eb:d4:ee:ab:
                    c3:cc:df:29:8f:01:ce:b8:44:ab:c5:42:60:4f:ba:
                    fc:e5:5e:1f:48:32:8c:f4:3f
                Exponent: 65537 (0x10001)
        X509v3 extensions:
            X509v3 Basic Constraints: 
                CA:FALSE
            Netscape Comment: 
                OpenSSL Generated Certificate
            X509v3 Subject Key Identifier: 
                48:61:CD:67:23:A0:03:93:6A:08:EA:59:81:1E:05:36:98:84:70:77
            X509v3 Authority Key Identifier: 
                keyid:AA:2A:BB:4C:65:16:44:99:F5:22:4A:46:27:55:F8:60:66:64:5E:7A

    Signature Algorithm: sha256WithRSAEncryption
         8c:27:1a:99:e5:1a:a0:79:29:66:a5:b1:0a:35:4c:17:b0:6e:
         65:37:e9:62:47:d9:3f:1c:d4:f9:af:3b:54:ff:a4:db:b4:c3:
         f1:91:df:d3:31:0c:74:4e:d5:2c:e4:70:2d:51:24:eb:6f:d9:
         3b:3d:4e:75:71:9b:b6:83:55:3e:ab:78:22:0e:5c:30:e7:dd:
         4c:d4:fb:c1:bd:6e:57:25:5d:87:6c:32:35:a7:13:9b:86:bf:
         bf:d5:8a:fe:04:40:9b:ee:1b:1b:a0:2e:c6:c0:d4:09:4a:17:
         4d:b3:3c:91:58:68:fe:1e:20:c6:e0:06:cd:0c:2c:3a:b2:05:
         45:47
-----BEGIN CERTIFICATE-----
MIICtzCCAiCgAwIBAgIBBDANBgkqhkiG9w0BAQsFADBrMRcwFQYDVQQDDA5jYS5s
b2NhbGRvbWFpbjELMAkGA1UEBhMCVFcxDzANBgNVBAgMBlRhaXdhbjEQMA4GA1UE
BwwHSHNpbkNodTEQMA4GA1UECgwHZnJlZTVHQzEOMAwGA1UECwwFVGVzdHMwHhcN
MTkwMTI0MDEyNjQ0WhcNMjAwMTI0MDEyNjQ0WjBbMQswCQYDVQQGEwJUVzEPMA0G
A1UECAwGVGFpd2FuMRAwDgYDVQQKDAdmcmVlNUdDMQ4wDAYDVQQLDAVUZXN0czEZ
MBcGA1UEAwwQcGNyZi5sb2NhbGRvbWFpbjCBnzANBgkqhkiG9w0BAQEFAAOBjQAw
gYkCgYEAszYZg+Cy9VN4p6v/b3ruFcKdzOgZeYS3tPnvPn2G6TaRmMjbtK5JeeVh
o2Ad0+V1BMi8Bm29wCfqchxN2qdswq3XM0PCdrgfD9MhE2Sn11PVeEu9FfjP2hzm
FDDM/3FvJ0aNa+vU7qvDzN8pjwHOuESrxUJgT7r85V4fSDKM9D8CAwEAAaN7MHkw
CQYDVR0TBAIwADAsBglghkgBhvhCAQ0EHxYdT3BlblNTTCBHZW5lcmF0ZWQgQ2Vy
dGlmaWNhdGUwHQYDVR0OBBYEFEhhzWcjoAOTagjqWYEeBTaYhHB3MB8GA1UdIwQY
MBaAFKoqu0xlFkSZ9SJKRidV+GBmZF56MA0GCSqGSIb3DQEBCwUAA4GBAIwnGpnl
GqB5KWalsQo1TBewbmU36WJH2T8c1PmvO1T/pNu0w/GR39MxDHRO1SzkcC1RJOtv
2Ts9TnVxm7aDVT6reCIOXDDn3UzU+8G9blclXYdsMjWnE5uGv7/Viv4EQJvuGxug
LsbA1AlKF02zPJFYaP4eIMbgBs0MLDqyBUVH
-----END CERTIFICATE-----
