Certificate:
    Data:
        Version: 3 (0x2)
        Serial Number: 3 (0x3)
    Signature Algorithm: sha256WithRSAEncryption
        Issuer: CN=ca.localdomain, C=KO, ST=Seoul, L=Nowon, O=NextEPC, OU=Tests
        Validity
            Not Before: Aug 21 09:05:44 2018 GMT
            Not After : Aug 21 09:05:44 2019 GMT
        Subject: C=KO, ST=Seoul, O=NextEPC, OU=Tests, CN=pgw.localdomain
        Subject Public Key Info:
            Public Key Algorithm: rsaEncryption
                Public-Key: (1024 bit)
                Modulus:
                    00:be:9f:74:97:16:75:d6:72:2d:dd:56:18:81:c6:
                    da:fd:f4:37:5f:71:8f:f7:2d:fd:1b:23:9d:5e:f5:
                    a7:53:65:41:6d:d4:0e:7c:de:f6:8b:16:e5:04:b5:
                    51:79:3e:8a:80:03:d0:c7:7a:ad:6c:83:81:f5:29:
                    27:1a:a0:0b:0b:98:67:91:9e:ab:55:f3:04:6a:54:
                    0a:84:85:0e:c3:29:b1:29:8b:30:63:fe:84:03:b9:
                    5b:fd:c0:eb:ff:ba:21:9a:47:da:c7:e8:6f:da:7c:
                    ad:9b:63:cc:1d:ec:11:43:f4:90:34:5d:81:67:d9:
                    e6:63:ea:f5:de:61:26:44:a1
                Exponent: 65537 (0x10001)
        X509v3 extensions:
            X509v3 Basic Constraints: 
                CA:FALSE
            Netscape Comment: 
                OpenSSL Generated Certificate
            X509v3 Subject Key Identifier: 
                FC:1D:A0:5E:04:30:63:5A:43:9A:5F:87:EE:DD:93:E7:68:96:C5:98
            X509v3 Authority Key Identifier: 
                keyid:D0:D0:45:F2:E8:91:14:28:5A:28:08:A4:08:89:EE:88:1A:53:A3:93

    Signature Algorithm: sha256WithRSAEncryption
         87:84:b1:92:b4:e2:69:57:fb:92:b5:8c:82:3e:61:b4:dd:20:
         8c:28:03:ad:56:67:f7:65:4b:eb:54:56:86:64:8c:de:40:e1:
         e2:18:f9:f3:a8:45:bc:91:19:bb:d0:f3:a5:36:28:49:66:05:
         2b:69:57:e1:39:a4:39:db:cb:d0:87:12:69:1d:2d:2e:da:3f:
         40:34:90:61:3c:29:14:87:86:12:05:c0:ff:11:b6:7d:51:fe:
         00:f2:46:77:da:e6:57:82:96:7f:89:02:ac:85:05:94:c6:7e:
         c3:54:e1:7d:f2:a5:3e:3d:dc:e4:a0:64:ee:4e:47:5a:1c:f1:
         a8:68
-----BEGIN CERTIFICATE-----
MIICsjCCAhugAwIBAgIBAzANBgkqhkiG9w0BAQsFADBoMRcwFQYDVQQDDA5jYS5s
b2NhbGRvbWFpbjELMAkGA1UEBhMCS08xDjAMBgNVBAgMBVNlb3VsMQ4wDAYDVQQH
DAVOb3dvbjEQMA4GA1UECgwHTmV4dEVQQzEOMAwGA1UECwwFVGVzdHMwHhcNMTgw
ODIxMDkwNTQ0WhcNMTkwODIxMDkwNTQ0WjBZMQswCQYDVQQGEwJLTzEOMAwGA1UE
CAwFU2VvdWwxEDAOBgNVBAoMB05leHRFUEMxDjAMBgNVBAsMBVRlc3RzMRgwFgYD
VQQDDA9wZ3cubG9jYWxkb21haW4wgZ8wDQYJKoZIhvcNAQEBBQADgY0AMIGJAoGB
AL6fdJcWddZyLd1WGIHG2v30N19xj/ct/RsjnV71p1NlQW3UDnze9osW5QS1UXk+
ioAD0Md6rWyDgfUpJxqgCwuYZ5Geq1XzBGpUCoSFDsMpsSmLMGP+hAO5W/3A6/+6
IZpH2sfob9p8rZtjzB3sEUP0kDRdgWfZ5mPq9d5hJkShAgMBAAGjezB5MAkGA1Ud
EwQCMAAwLAYJYIZIAYb4QgENBB8WHU9wZW5TU0wgR2VuZXJhdGVkIENlcnRpZmlj
YXRlMB0GA1UdDgQWBBT8HaBeBDBjWkOaX4fu3ZPnaJbFmDAfBgNVHSMEGDAWgBTQ
0EXy6JEUKFooCKQIie6IGlOjkzANBgkqhkiG9w0BAQsFAAOBgQCHhLGStOJpV/uS
tYyCPmG03SCMKAOtVmf3ZUvrVFaGZIzeQOHiGPnzqEW8kRm70POlNihJZgUraVfh
OaQ528vQhxJpHS0u2j9ANJBhPCkUh4YSBcD/EbZ9Uf4A8kZ32uZXgpZ/iQKshQWU
xn7DVOF98qU+PdzkoGTuTkdaHPGoaA==
-----END CERTIFICATE-----
