Certificate:
    Data:
        Version: 3 (0x2)
        Serial Number: 3 (0x3)
    Signature Algorithm: sha256WithRSAEncryption
        Issuer: CN=ca.localdomain, C=KO, ST=Seoul, L=Nowon, O=NextEPC, OU=Tests
        Validity
            Not Before: Aug 28 08:19:46 2018 GMT
            Not After : Aug 28 08:19:46 2019 GMT
        Subject: C=KO, ST=Seoul, O=NextEPC, OU=Tests, CN=pgw.localdomain
        Subject Public Key Info:
            Public Key Algorithm: rsaEncryption
                Public-Key: (1024 bit)
                Modulus:
                    00:b0:16:7d:43:15:15:92:2d:da:c3:20:95:13:86:
                    56:ca:06:fe:bf:78:71:52:44:10:e8:31:28:41:d9:
                    36:0b:a2:7c:65:1a:00:04:d8:8a:aa:76:32:96:0d:
                    0d:d7:4d:9d:a0:a2:39:5e:0a:cb:5d:f0:01:33:4f:
                    6f:7a:a5:6d:c1:7f:04:e9:8c:cc:91:51:19:05:72:
                    54:5a:b1:ae:d0:54:a7:50:fc:14:0c:c9:c8:c9:4b:
                    8f:58:7b:3d:67:d5:61:b4:d7:dc:c8:e7:9e:77:7b:
                    36:80:7d:a2:f8:f6:da:78:85:61:b8:0b:87:5c:c6:
                    6c:a5:8c:ba:c4:a0:ea:1c:33
                Exponent: 65537 (0x10001)
        X509v3 extensions:
            X509v3 Basic Constraints: 
                CA:FALSE
            Netscape Comment: 
                OpenSSL Generated Certificate
            X509v3 Subject Key Identifier: 
                56:4D:F4:87:CC:B6:D4:44:5E:3D:3D:DB:45:A4:9D:75:5B:04:71:39
            X509v3 Authority Key Identifier: 
                keyid:BB:4B:61:70:E1:46:32:8B:E5:74:49:4B:35:7B:AF:42:50:4B:4F:1C

    Signature Algorithm: sha256WithRSAEncryption
         11:31:66:68:22:4d:bf:d4:66:0c:42:1a:f8:2e:6d:51:23:91:
         e3:49:1d:ce:e9:c7:54:6c:4a:76:e6:80:e3:15:d5:5f:7d:80:
         2f:6d:2c:cc:0c:77:a1:ec:ab:c5:36:bb:a2:fa:ad:78:b8:d6:
         a5:6f:b0:f2:2a:f9:3c:5f:36:ca:51:62:6c:b7:e4:25:0d:09:
         63:4c:b8:06:a2:83:61:e9:3b:64:2e:2f:be:9b:c4:94:6a:37:
         00:c6:5a:7a:6a:20:98:ce:2d:4b:b2:07:e5:df:80:86:ab:db:
         01:7b:67:b9:60:14:98:d8:6c:3c:7c:74:9a:74:7d:8e:d5:2d:
         60:e2
-----BEGIN CERTIFICATE-----
MIICsjCCAhugAwIBAgIBAzANBgkqhkiG9w0BAQsFADBoMRcwFQYDVQQDDA5jYS5s
b2NhbGRvbWFpbjELMAkGA1UEBhMCS08xDjAMBgNVBAgMBVNlb3VsMQ4wDAYDVQQH
DAVOb3dvbjEQMA4GA1UECgwHTmV4dEVQQzEOMAwGA1UECwwFVGVzdHMwHhcNMTgw
ODI4MDgxOTQ2WhcNMTkwODI4MDgxOTQ2WjBZMQswCQYDVQQGEwJLTzEOMAwGA1UE
CAwFU2VvdWwxEDAOBgNVBAoMB05leHRFUEMxDjAMBgNVBAsMBVRlc3RzMRgwFgYD
VQQDDA9wZ3cubG9jYWxkb21haW4wgZ8wDQYJKoZIhvcNAQEBBQADgY0AMIGJAoGB
ALAWfUMVFZIt2sMglROGVsoG/r94cVJEEOgxKEHZNguifGUaAATYiqp2MpYNDddN
naCiOV4Ky13wATNPb3qlbcF/BOmMzJFRGQVyVFqxrtBUp1D8FAzJyMlLj1h7PWfV
YbTX3Mjnnnd7NoB9ovj22niFYbgLh1zGbKWMusSg6hwzAgMBAAGjezB5MAkGA1Ud
EwQCMAAwLAYJYIZIAYb4QgENBB8WHU9wZW5TU0wgR2VuZXJhdGVkIENlcnRpZmlj
YXRlMB0GA1UdDgQWBBRWTfSHzLbURF49PdtFpJ11WwRxOTAfBgNVHSMEGDAWgBS7
S2Fw4UYyi+V0SUs1e69CUEtPHDANBgkqhkiG9w0BAQsFAAOBgQARMWZoIk2/1GYM
Qhr4Lm1RI5HjSR3O6cdUbEp25oDjFdVffYAvbSzMDHeh7KvFNrui+q14uNalb7Dy
Kvk8XzbKUWJst+QlDQljTLgGooNh6TtkLi++m8SUajcAxlp6aiCYzi1Lsgfl34CG
q9sBe2e5YBSY2Gw8fHSadH2O1S1g4g==
-----END CERTIFICATE-----
