Certificate:
    Data:
        Version: 3 (0x2)
        Serial Number: 3 (0x3)
    Signature Algorithm: sha256WithRSAEncryption
        Issuer: CN=ca.localdomain, C=KO, ST=Seoul, L=Nowon, O=NCTU5GC, OU=Tests
        Validity
            Not Before: Jan  7 09:00:33 2019 GMT
            Not After : Jan  7 09:00:33 2020 GMT
        Subject: C=KO, ST=Seoul, O=NCTU5GC, OU=Tests, CN=smf.localdomain
        Subject Public Key Info:
            Public Key Algorithm: rsaEncryption
                Public-Key: (1024 bit)
                Modulus:
                    00:b7:05:6c:1f:c0:86:6c:81:1c:c0:da:3e:3c:37:
                    02:2c:81:51:3b:e9:92:57:10:de:98:7c:06:aa:f9:
                    2c:69:9c:70:49:d7:92:05:3f:af:36:ee:fd:d8:e2:
                    ca:ad:0e:02:b3:c2:1b:1d:94:7e:d8:61:f3:be:61:
                    68:b5:20:4d:4b:f8:fb:d6:52:68:f1:90:72:71:46:
                    78:07:db:eb:64:3a:d1:7b:83:8f:c5:54:c2:23:03:
                    3a:a5:17:cd:55:e9:53:ad:49:6d:59:a0:37:48:4f:
                    55:71:96:5e:0c:71:99:b8:6a:e1:4f:11:55:b5:8a:
                    df:45:d5:bf:2e:96:de:b1:3b
                Exponent: 65537 (0x10001)
        X509v3 extensions:
            X509v3 Basic Constraints: 
                CA:FALSE
            Netscape Comment: 
                OpenSSL Generated Certificate
            X509v3 Subject Key Identifier: 
                18:FC:C9:D5:27:8B:1B:AE:BD:1C:53:C1:E0:83:0C:63:F5:37:21:96
            X509v3 Authority Key Identifier: 
                keyid:8A:26:81:CA:DE:84:D2:C2:2A:75:6E:00:27:A8:41:0D:01:BA:FA:13

    Signature Algorithm: sha256WithRSAEncryption
         8a:65:43:16:12:ee:73:eb:d0:3e:08:1e:2b:42:13:01:88:60:
         c0:3c:6f:31:a0:38:e0:d5:93:07:d8:f2:e1:93:27:e0:e4:33:
         4e:e1:0c:2b:17:3e:ba:20:a4:e0:d4:ea:57:a0:ff:18:b0:70:
         df:b3:28:e3:24:20:0c:b9:97:a5:b5:08:53:44:65:7f:41:d3:
         16:a6:93:e1:70:c3:2c:3b:e6:15:00:d2:c6:55:39:fd:2e:e6:
         13:0e:53:12:dd:c3:ff:19:7b:a2:cb:65:a7:e1:b5:af:ed:24:
         b6:02:b5:77:56:d7:f3:29:cb:03:bc:dd:6f:ff:a2:d4:42:ff:
         29:56
-----BEGIN CERTIFICATE-----
MIICsjCCAhugAwIBAgIBAzANBgkqhkiG9w0BAQsFADBoMRcwFQYDVQQDDA5jYS5s
b2NhbGRvbWFpbjELMAkGA1UEBhMCS08xDjAMBgNVBAgMBVNlb3VsMQ4wDAYDVQQH
DAVOb3dvbjEQMA4GA1UECgwHTkNUVTVHQzEOMAwGA1UECwwFVGVzdHMwHhcNMTkw
MTA3MDkwMDMzWhcNMjAwMTA3MDkwMDMzWjBZMQswCQYDVQQGEwJLTzEOMAwGA1UE
CAwFU2VvdWwxEDAOBgNVBAoMB05DVFU1R0MxDjAMBgNVBAsMBVRlc3RzMRgwFgYD
VQQDDA9zbWYubG9jYWxkb21haW4wgZ8wDQYJKoZIhvcNAQEBBQADgY0AMIGJAoGB
ALcFbB/AhmyBHMDaPjw3AiyBUTvpklcQ3ph8Bqr5LGmccEnXkgU/rzbu/djiyq0O
ArPCGx2Ufthh875haLUgTUv4+9ZSaPGQcnFGeAfb62Q60XuDj8VUwiMDOqUXzVXp
U61JbVmgN0hPVXGWXgxxmbhq4U8RVbWK30XVvy6W3rE7AgMBAAGjezB5MAkGA1Ud
EwQCMAAwLAYJYIZIAYb4QgENBB8WHU9wZW5TU0wgR2VuZXJhdGVkIENlcnRpZmlj
YXRlMB0GA1UdDgQWBBQY/MnVJ4sbrr0cU8Hggwxj9TchljAfBgNVHSMEGDAWgBSK
JoHK3oTSwip1bgAnqEENAbr6EzANBgkqhkiG9w0BAQsFAAOBgQCKZUMWEu5z69A+
CB4rQhMBiGDAPG8xoDjg1ZMH2PLhkyfg5DNO4QwrFz66IKTg1OpXoP8YsHDfsyjj
JCAMuZeltQhTRGV/QdMWppPhcMMsO+YVANLGVTn9LuYTDlMS3cP/GXuiy2Wn4bWv
7SS2ArV3VtfzKcsDvN1v/6LUQv8pVg==
-----END CERTIFICATE-----
