Certificate:
    Data:
        Version: 3 (0x2)
        Serial Number: 3 (0x3)
    Signature Algorithm: sha256WithRSAEncryption
        Issuer: CN=ca.localdomain, C=KO, ST=Seoul, L=Nowon, O=Open5GC, OU=Tests
        Validity
            Not Before: Jan  2 07:43:25 2019 GMT
            Not After : Jan  2 07:43:25 2020 GMT
        Subject: C=KO, ST=Seoul, O=Open5GC, OU=Tests, CN=smf.localdomain
        Subject Public Key Info:
            Public Key Algorithm: rsaEncryption
                Public-Key: (1024 bit)
                Modulus:
                    00:db:ca:a8:15:57:f4:34:2b:63:27:4b:f0:2a:67:
                    2f:06:10:fb:ab:04:50:f1:34:c3:c9:85:a2:f5:5d:
                    09:70:f5:66:31:6c:28:59:29:c9:33:61:c5:2c:40:
                    52:10:9e:66:3c:c4:bc:2b:5e:42:23:af:ba:31:af:
                    69:b4:10:d9:21:55:74:02:d0:08:b0:7d:c0:f5:3d:
                    3d:c9:de:9d:61:94:f2:ef:07:ec:f2:4c:24:87:59:
                    d3:41:fa:30:b5:70:7f:a7:19:85:d5:ae:90:bc:00:
                    d2:9c:14:4b:dd:e8:39:d3:f1:2d:8c:3f:5c:e0:e3:
                    e8:41:1b:b6:a3:96:5d:ff:07
                Exponent: 65537 (0x10001)
        X509v3 extensions:
            X509v3 Basic Constraints: 
                CA:FALSE
            Netscape Comment: 
                OpenSSL Generated Certificate
            X509v3 Subject Key Identifier: 
                9D:BB:A3:BE:DB:FF:A0:73:EC:D5:C1:EA:76:78:53:10:B1:99:DC:89
            X509v3 Authority Key Identifier: 
                keyid:3C:3B:38:4D:B1:A0:77:B8:B3:34:01:38:9A:65:B1:A5:18:EF:0B:A5

    Signature Algorithm: sha256WithRSAEncryption
         1a:04:82:98:f6:ab:e9:39:01:20:28:bf:a4:40:17:f2:08:74:
         63:89:0f:ff:99:6b:8f:e3:13:e3:2f:a0:38:29:2c:dd:7d:89:
         05:0f:e4:2d:34:63:8c:e9:fa:05:90:64:3a:57:af:e2:ab:9b:
         c1:6f:88:b9:92:8a:57:97:61:e4:5b:cb:1a:57:fd:dd:c8:dc:
         a2:38:07:a6:26:2d:d6:0a:1d:93:ec:bb:b1:11:87:a4:cb:c3:
         5c:7e:58:65:58:ae:8d:0c:91:ec:e8:09:bd:90:8f:fa:fd:75:
         d9:1a:87:8c:93:7a:c9:1d:76:5f:59:da:be:b4:0d:6b:74:6a:
         53:eb
-----BEGIN CERTIFICATE-----
MIICsjCCAhugAwIBAgIBAzANBgkqhkiG9w0BAQsFADBoMRcwFQYDVQQDDA5jYS5s
b2NhbGRvbWFpbjELMAkGA1UEBhMCS08xDjAMBgNVBAgMBVNlb3VsMQ4wDAYDVQQH
DAVOb3dvbjEQMA4GA1UECgwHT3BlbjVHQzEOMAwGA1UECwwFVGVzdHMwHhcNMTkw
MTAyMDc0MzI1WhcNMjAwMTAyMDc0MzI1WjBZMQswCQYDVQQGEwJLTzEOMAwGA1UE
CAwFU2VvdWwxEDAOBgNVBAoMB09wZW41R0MxDjAMBgNVBAsMBVRlc3RzMRgwFgYD
VQQDDA9zbWYubG9jYWxkb21haW4wgZ8wDQYJKoZIhvcNAQEBBQADgY0AMIGJAoGB
ANvKqBVX9DQrYydL8CpnLwYQ+6sEUPE0w8mFovVdCXD1ZjFsKFkpyTNhxSxAUhCe
ZjzEvCteQiOvujGvabQQ2SFVdALQCLB9wPU9PcnenWGU8u8H7PJMJIdZ00H6MLVw
f6cZhdWukLwA0pwUS93oOdPxLYw/XODj6EEbtqOWXf8HAgMBAAGjezB5MAkGA1Ud
EwQCMAAwLAYJYIZIAYb4QgENBB8WHU9wZW5TU0wgR2VuZXJhdGVkIENlcnRpZmlj
YXRlMB0GA1UdDgQWBBSdu6O+2/+gc+zVwep2eFMQsZnciTAfBgNVHSMEGDAWgBQ8
OzhNsaB3uLM0ATiaZbGlGO8LpTANBgkqhkiG9w0BAQsFAAOBgQAaBIKY9qvpOQEg
KL+kQBfyCHRjiQ//mWuP4xPjL6A4KSzdfYkFD+QtNGOM6foFkGQ6V6/iq5vBb4i5
kopXl2HkW8saV/3dyNyiOAemJi3WCh2T7LuxEYeky8NcflhlWK6NDJHs6Am9kI/6
/XXZGoeMk3rJHXZfWdq+tA1rdGpT6w==
-----END CERTIFICATE-----
