Certificate:
    Data:
        Version: 3 (0x2)
        Serial Number: 3 (0x3)
    Signature Algorithm: sha256WithRSAEncryption
        Issuer: CN=ca.localdomain, C=TW, ST=Taiwan, L=HsinChu, O=free5GC, OU=Tests
        Validity
            Not Before: Jan 24 01:26:44 2019 GMT
            Not After : Jan 24 01:26:44 2020 GMT
        Subject: C=TW, ST=Taiwan, O=free5GC, OU=Tests, CN=smf.localdomain
        Subject Public Key Info:
            Public Key Algorithm: rsaEncryption
                Public-Key: (1024 bit)
                Modulus:
                    00:bb:83:cb:30:43:62:6a:85:31:b1:dd:5c:cd:12:
                    c7:db:d4:0b:d4:3f:d3:51:4d:db:10:37:5b:ed:10:
                    ee:30:57:e9:d4:1f:9d:4c:42:bc:1d:8a:e9:cb:42:
                    82:ee:86:34:cc:8c:b9:92:0a:39:f1:7f:9f:70:90:
                    fe:e5:88:5f:65:61:cb:1e:7b:7e:09:0a:18:86:7c:
                    a0:8b:52:9a:9d:62:39:00:2e:96:67:92:e4:ce:d4:
                    70:e4:63:a9:a8:cc:9d:77:9f:ac:2a:90:1b:88:1d:
                    35:e4:c6:ad:0c:f9:f6:0e:8e:25:35:12:4b:d7:9b:
                    db:68:56:2d:04:48:9c:a3:73
                Exponent: 65537 (0x10001)
        X509v3 extensions:
            X509v3 Basic Constraints: 
                CA:FALSE
            Netscape Comment: 
                OpenSSL Generated Certificate
            X509v3 Subject Key Identifier: 
                2B:90:80:95:AB:0F:8C:17:74:6A:F6:C6:6E:53:04:1B:FF:17:80:72
            X509v3 Authority Key Identifier: 
                keyid:AA:2A:BB:4C:65:16:44:99:F5:22:4A:46:27:55:F8:60:66:64:5E:7A

    Signature Algorithm: sha256WithRSAEncryption
         27:a7:31:03:1f:92:45:ca:e4:75:1d:d1:c0:d9:d4:63:4f:78:
         ea:a4:5a:89:f3:4a:6b:6c:fe:86:f4:23:e7:1b:75:da:cf:83:
         3a:b5:ff:69:dd:74:db:54:a5:97:87:70:3b:cd:73:ad:0b:9d:
         c6:de:b1:89:89:70:99:4c:17:0c:71:22:c0:f5:c9:88:e9:c4:
         ce:a5:9b:20:1d:61:b7:f4:9c:2c:55:f0:db:d7:1d:80:4a:cd:
         62:90:a2:a6:40:8d:d3:f2:52:d1:2b:02:ed:91:b0:f8:98:c8:
         d1:c2:88:03:6e:79:cd:06:98:a8:06:00:52:11:cb:68:21:1d:
         da:39
-----BEGIN CERTIFICATE-----
MIICtjCCAh+gAwIBAgIBAzANBgkqhkiG9w0BAQsFADBrMRcwFQYDVQQDDA5jYS5s
b2NhbGRvbWFpbjELMAkGA1UEBhMCVFcxDzANBgNVBAgMBlRhaXdhbjEQMA4GA1UE
BwwHSHNpbkNodTEQMA4GA1UECgwHZnJlZTVHQzEOMAwGA1UECwwFVGVzdHMwHhcN
MTkwMTI0MDEyNjQ0WhcNMjAwMTI0MDEyNjQ0WjBaMQswCQYDVQQGEwJUVzEPMA0G
A1UECAwGVGFpd2FuMRAwDgYDVQQKDAdmcmVlNUdDMQ4wDAYDVQQLDAVUZXN0czEY
MBYGA1UEAwwPc21mLmxvY2FsZG9tYWluMIGfMA0GCSqGSIb3DQEBAQUAA4GNADCB
iQKBgQC7g8swQ2JqhTGx3VzNEsfb1AvUP9NRTdsQN1vtEO4wV+nUH51MQrwdiunL
QoLuhjTMjLmSCjnxf59wkP7liF9lYcsee34JChiGfKCLUpqdYjkALpZnkuTO1HDk
Y6mozJ13n6wqkBuIHTXkxq0M+fYOjiU1EkvXm9toVi0ESJyjcwIDAQABo3sweTAJ
BgNVHRMEAjAAMCwGCWCGSAGG+EIBDQQfFh1PcGVuU1NMIEdlbmVyYXRlZCBDZXJ0
aWZpY2F0ZTAdBgNVHQ4EFgQUK5CAlasPjBd0avbGblMEG/8XgHIwHwYDVR0jBBgw
FoAUqiq7TGUWRJn1IkpGJ1X4YGZkXnowDQYJKoZIhvcNAQELBQADgYEAJ6cxAx+S
RcrkdR3RwNnUY0946qRaifNKa2z+hvQj5xt12s+DOrX/ad1021Sll4dwO81zrQud
xt6xiYlwmUwXDHEiwPXJiOnEzqWbIB1ht/ScLFXw29cdgErNYpCipkCN0/JS0SsC
7ZGw+JjI0cKIA255zQaYqAYAUhHLaCEd2jk=
-----END CERTIFICATE-----
