Certificate:
    Data:
        Version: 3 (0x2)
        Serial Number: 3 (0x3)
    Signature Algorithm: sha256WithRSAEncryption
        Issuer: CN=ca.localdomain, C=TW, ST=Taiwan, L=HsinChu, O=NCTU5GC, OU=Tests
        Validity
            Not Before: Jan  9 02:10:16 2019 GMT
            Not After : Jan  9 02:10:16 2020 GMT
        Subject: C=TW, ST=Taiwan, O=NCTU5GC, OU=Tests, CN=smf.localdomain
        Subject Public Key Info:
            Public Key Algorithm: rsaEncryption
                Public-Key: (1024 bit)
                Modulus:
                    00:ae:4d:61:4f:5a:42:a9:0e:c8:7a:ed:7d:b5:c1:
                    2a:e4:3c:a9:be:18:8c:54:b7:f8:14:a3:e7:30:04:
                    5b:a0:52:f8:f1:49:bb:3a:46:f4:48:da:1c:86:46:
                    57:b2:54:be:f0:a3:2a:86:41:e6:59:01:56:58:eb:
                    7f:9e:dc:20:09:47:b2:bc:87:f6:f6:29:09:c7:b1:
                    d3:6a:ae:82:dd:41:7a:60:5a:4e:c0:65:b9:20:52:
                    bf:b9:29:62:aa:9a:bf:1b:60:4e:11:3d:d4:c4:43:
                    61:93:f9:5d:57:39:45:71:fc:56:6a:6d:d6:0b:9f:
                    a8:5c:78:7c:ae:6f:2c:f5:d7
                Exponent: 65537 (0x10001)
        X509v3 extensions:
            X509v3 Basic Constraints: 
                CA:FALSE
            Netscape Comment: 
                OpenSSL Generated Certificate
            X509v3 Subject Key Identifier: 
                FB:08:4E:39:39:60:93:C3:33:D3:14:A8:19:80:92:1E:A6:27:1E:21
            X509v3 Authority Key Identifier: 
                keyid:18:67:04:CB:74:94:79:1D:25:4E:6B:95:22:9C:8B:B7:8A:CC:62:C3

    Signature Algorithm: sha256WithRSAEncryption
         50:de:dc:b7:b5:14:19:d8:80:73:bf:ca:58:04:aa:f6:1e:be:
         43:f9:e2:07:b4:91:b9:3f:e7:87:61:82:9f:80:75:09:fe:bc:
         92:cf:44:a2:e6:ad:64:c6:18:7d:9b:7f:cb:be:3e:78:b7:aa:
         0b:a5:e0:ee:c3:49:be:cb:7a:17:78:a6:d7:3c:20:40:ef:1d:
         77:75:6e:72:4c:04:55:6d:30:94:49:46:34:9c:26:3b:41:98:
         38:ba:91:b9:3a:59:d6:85:e5:89:c5:3d:dd:7b:e0:f4:f4:c4:
         3b:48:1a:fe:f3:6b:64:65:ed:2c:3c:2f:78:05:e3:dd:67:3c:
         66:b2
-----BEGIN CERTIFICATE-----
MIICtjCCAh+gAwIBAgIBAzANBgkqhkiG9w0BAQsFADBrMRcwFQYDVQQDDA5jYS5s
b2NhbGRvbWFpbjELMAkGA1UEBhMCVFcxDzANBgNVBAgMBlRhaXdhbjEQMA4GA1UE
BwwHSHNpbkNodTEQMA4GA1UECgwHTkNUVTVHQzEOMAwGA1UECwwFVGVzdHMwHhcN
MTkwMTA5MDIxMDE2WhcNMjAwMTA5MDIxMDE2WjBaMQswCQYDVQQGEwJUVzEPMA0G
A1UECAwGVGFpd2FuMRAwDgYDVQQKDAdOQ1RVNUdDMQ4wDAYDVQQLDAVUZXN0czEY
MBYGA1UEAwwPc21mLmxvY2FsZG9tYWluMIGfMA0GCSqGSIb3DQEBAQUAA4GNADCB
iQKBgQCuTWFPWkKpDsh67X21wSrkPKm+GIxUt/gUo+cwBFugUvjxSbs6RvRI2hyG
RleyVL7woyqGQeZZAVZY63+e3CAJR7K8h/b2KQnHsdNqroLdQXpgWk7AZbkgUr+5
KWKqmr8bYE4RPdTEQ2GT+V1XOUVx/FZqbdYLn6hceHyubyz11wIDAQABo3sweTAJ
BgNVHRMEAjAAMCwGCWCGSAGG+EIBDQQfFh1PcGVuU1NMIEdlbmVyYXRlZCBDZXJ0
aWZpY2F0ZTAdBgNVHQ4EFgQU+whOOTlgk8Mz0xSoGYCSHqYnHiEwHwYDVR0jBBgw
FoAUGGcEy3SUeR0lTmuVIpyLt4rMYsMwDQYJKoZIhvcNAQELBQADgYEAUN7ct7UU
GdiAc7/KWASq9h6+Q/niB7SRuT/nh2GCn4B1Cf68ks9EouatZMYYfZt/y74+eLeq
C6Xg7sNJvst6F3im1zwgQO8dd3VuckwEVW0wlElGNJwmO0GYOLqRuTpZ1oXlicU9
3Xvg9PTEO0ga/vNrZGXtLDwveAXj3Wc8ZrI=
-----END CERTIFICATE-----
